
kernel/kernel:     file format elf64-littleriscv


Disassembly of section .text:

0000000080000000 <_entry>:
    80000000:	00028117          	auipc	sp,0x28
    80000004:	14010113          	addi	sp,sp,320 # 80028140 <stack0>
    80000008:	6505                	lui	a0,0x1
    8000000a:	f14025f3          	csrr	a1,mhartid
    8000000e:	0585                	addi	a1,a1,1
    80000010:	02b50533          	mul	a0,a0,a1
    80000014:	912a                	add	sp,sp,a0
    80000016:	28d050ef          	jal	ra,80005aa2 <start>

000000008000001a <spin>:
    8000001a:	a001                	j	8000001a <spin>

000000008000001c <kfree>:
// which normally should have been returned by a
// call to kalloc().  (The exception is when
// initializing the allocator; see kinit above.)
void
kfree(void *pa)
{
    8000001c:	1101                	addi	sp,sp,-32
    8000001e:	ec06                	sd	ra,24(sp)
    80000020:	e822                	sd	s0,16(sp)
    80000022:	e426                	sd	s1,8(sp)
    80000024:	e04a                	sd	s2,0(sp)
    80000026:	1000                	addi	s0,sp,32
  struct run *r;

  if(((uint64)pa % PGSIZE) != 0 || (char*)pa < end || (uint64)pa >= PHYSTOP)
    80000028:	03451793          	slli	a5,a0,0x34
    8000002c:	ebb9                	bnez	a5,80000082 <kfree+0x66>
    8000002e:	84aa                	mv	s1,a0
    80000030:	00030797          	auipc	a5,0x30
    80000034:	21078793          	addi	a5,a5,528 # 80030240 <end>
    80000038:	04f56563          	bltu	a0,a5,80000082 <kfree+0x66>
    8000003c:	47c5                	li	a5,17
    8000003e:	07ee                	slli	a5,a5,0x1b
    80000040:	04f57163          	bgeu	a0,a5,80000082 <kfree+0x66>
    panic("kfree");

  // Fill with junk to catch dangling refs.
  memset(pa, 1, PGSIZE);
    80000044:	6605                	lui	a2,0x1
    80000046:	4585                	li	a1,1
    80000048:	00000097          	auipc	ra,0x0
    8000004c:	132080e7          	jalr	306(ra) # 8000017a <memset>

  r = (struct run*)pa;

  acquire(&kmem.lock);
    80000050:	00009917          	auipc	s2,0x9
    80000054:	fe090913          	addi	s2,s2,-32 # 80009030 <kmem>
    80000058:	854a                	mv	a0,s2
    8000005a:	00006097          	auipc	ra,0x6
    8000005e:	42e080e7          	jalr	1070(ra) # 80006488 <acquire>
  r->next = kmem.freelist;
    80000062:	01893783          	ld	a5,24(s2)
    80000066:	e09c                	sd	a5,0(s1)
  kmem.freelist = r;
    80000068:	00993c23          	sd	s1,24(s2)
  release(&kmem.lock);
    8000006c:	854a                	mv	a0,s2
    8000006e:	00006097          	auipc	ra,0x6
    80000072:	4ce080e7          	jalr	1230(ra) # 8000653c <release>
}
    80000076:	60e2                	ld	ra,24(sp)
    80000078:	6442                	ld	s0,16(sp)
    8000007a:	64a2                	ld	s1,8(sp)
    8000007c:	6902                	ld	s2,0(sp)
    8000007e:	6105                	addi	sp,sp,32
    80000080:	8082                	ret
    panic("kfree");
    80000082:	00008517          	auipc	a0,0x8
    80000086:	f8e50513          	addi	a0,a0,-114 # 80008010 <etext+0x10>
    8000008a:	00006097          	auipc	ra,0x6
    8000008e:	ec6080e7          	jalr	-314(ra) # 80005f50 <panic>

0000000080000092 <freerange>:
{
    80000092:	7179                	addi	sp,sp,-48
    80000094:	f406                	sd	ra,40(sp)
    80000096:	f022                	sd	s0,32(sp)
    80000098:	ec26                	sd	s1,24(sp)
    8000009a:	e84a                	sd	s2,16(sp)
    8000009c:	e44e                	sd	s3,8(sp)
    8000009e:	e052                	sd	s4,0(sp)
    800000a0:	1800                	addi	s0,sp,48
  p = (char*)PGROUNDUP((uint64)pa_start);
    800000a2:	6785                	lui	a5,0x1
    800000a4:	fff78713          	addi	a4,a5,-1 # fff <_entry-0x7ffff001>
    800000a8:	00e504b3          	add	s1,a0,a4
    800000ac:	777d                	lui	a4,0xfffff
    800000ae:	8cf9                	and	s1,s1,a4
  for(; p + PGSIZE <= (char*)pa_end; p += PGSIZE)
    800000b0:	94be                	add	s1,s1,a5
    800000b2:	0095ee63          	bltu	a1,s1,800000ce <freerange+0x3c>
    800000b6:	892e                	mv	s2,a1
    kfree(p);
    800000b8:	7a7d                	lui	s4,0xfffff
  for(; p + PGSIZE <= (char*)pa_end; p += PGSIZE)
    800000ba:	6985                	lui	s3,0x1
    kfree(p);
    800000bc:	01448533          	add	a0,s1,s4
    800000c0:	00000097          	auipc	ra,0x0
    800000c4:	f5c080e7          	jalr	-164(ra) # 8000001c <kfree>
  for(; p + PGSIZE <= (char*)pa_end; p += PGSIZE)
    800000c8:	94ce                	add	s1,s1,s3
    800000ca:	fe9979e3          	bgeu	s2,s1,800000bc <freerange+0x2a>
}
    800000ce:	70a2                	ld	ra,40(sp)
    800000d0:	7402                	ld	s0,32(sp)
    800000d2:	64e2                	ld	s1,24(sp)
    800000d4:	6942                	ld	s2,16(sp)
    800000d6:	69a2                	ld	s3,8(sp)
    800000d8:	6a02                	ld	s4,0(sp)
    800000da:	6145                	addi	sp,sp,48
    800000dc:	8082                	ret

00000000800000de <kinit>:
{
    800000de:	1141                	addi	sp,sp,-16
    800000e0:	e406                	sd	ra,8(sp)
    800000e2:	e022                	sd	s0,0(sp)
    800000e4:	0800                	addi	s0,sp,16
  initlock(&kmem.lock, "kmem");
    800000e6:	00008597          	auipc	a1,0x8
    800000ea:	f3258593          	addi	a1,a1,-206 # 80008018 <etext+0x18>
    800000ee:	00009517          	auipc	a0,0x9
    800000f2:	f4250513          	addi	a0,a0,-190 # 80009030 <kmem>
    800000f6:	00006097          	auipc	ra,0x6
    800000fa:	302080e7          	jalr	770(ra) # 800063f8 <initlock>
  freerange(end, (void*)PHYSTOP);
    800000fe:	45c5                	li	a1,17
    80000100:	05ee                	slli	a1,a1,0x1b
    80000102:	00030517          	auipc	a0,0x30
    80000106:	13e50513          	addi	a0,a0,318 # 80030240 <end>
    8000010a:	00000097          	auipc	ra,0x0
    8000010e:	f88080e7          	jalr	-120(ra) # 80000092 <freerange>
}
    80000112:	60a2                	ld	ra,8(sp)
    80000114:	6402                	ld	s0,0(sp)
    80000116:	0141                	addi	sp,sp,16
    80000118:	8082                	ret

000000008000011a <kalloc>:
// Allocate one 4096-byte page of physical memory.
// Returns a pointer that the kernel can use.
// Returns 0 if the memory cannot be allocated.
void *
kalloc(void)
{
    8000011a:	1101                	addi	sp,sp,-32
    8000011c:	ec06                	sd	ra,24(sp)
    8000011e:	e822                	sd	s0,16(sp)
    80000120:	e426                	sd	s1,8(sp)
    80000122:	1000                	addi	s0,sp,32
  struct run *r;

  acquire(&kmem.lock);
    80000124:	00009497          	auipc	s1,0x9
    80000128:	f0c48493          	addi	s1,s1,-244 # 80009030 <kmem>
    8000012c:	8526                	mv	a0,s1
    8000012e:	00006097          	auipc	ra,0x6
    80000132:	35a080e7          	jalr	858(ra) # 80006488 <acquire>
  r = kmem.freelist;
    80000136:	6c84                	ld	s1,24(s1)
  if(r)
    80000138:	c885                	beqz	s1,80000168 <kalloc+0x4e>
    kmem.freelist = r->next;
    8000013a:	609c                	ld	a5,0(s1)
    8000013c:	00009517          	auipc	a0,0x9
    80000140:	ef450513          	addi	a0,a0,-268 # 80009030 <kmem>
    80000144:	ed1c                	sd	a5,24(a0)
  release(&kmem.lock);
    80000146:	00006097          	auipc	ra,0x6
    8000014a:	3f6080e7          	jalr	1014(ra) # 8000653c <release>

  if(r)
    memset((char*)r, 5, PGSIZE); // fill with junk
    8000014e:	6605                	lui	a2,0x1
    80000150:	4595                	li	a1,5
    80000152:	8526                	mv	a0,s1
    80000154:	00000097          	auipc	ra,0x0
    80000158:	026080e7          	jalr	38(ra) # 8000017a <memset>
  return (void*)r;
}
    8000015c:	8526                	mv	a0,s1
    8000015e:	60e2                	ld	ra,24(sp)
    80000160:	6442                	ld	s0,16(sp)
    80000162:	64a2                	ld	s1,8(sp)
    80000164:	6105                	addi	sp,sp,32
    80000166:	8082                	ret
  release(&kmem.lock);
    80000168:	00009517          	auipc	a0,0x9
    8000016c:	ec850513          	addi	a0,a0,-312 # 80009030 <kmem>
    80000170:	00006097          	auipc	ra,0x6
    80000174:	3cc080e7          	jalr	972(ra) # 8000653c <release>
  if(r)
    80000178:	b7d5                	j	8000015c <kalloc+0x42>

000000008000017a <memset>:
#include "types.h"

void*
memset(void *dst, int c, uint n)
{
    8000017a:	1141                	addi	sp,sp,-16
    8000017c:	e422                	sd	s0,8(sp)
    8000017e:	0800                	addi	s0,sp,16
  char *cdst = (char *) dst;
  int i;
  for(i = 0; i < n; i++){
    80000180:	ca19                	beqz	a2,80000196 <memset+0x1c>
    80000182:	87aa                	mv	a5,a0
    80000184:	1602                	slli	a2,a2,0x20
    80000186:	9201                	srli	a2,a2,0x20
    80000188:	00a60733          	add	a4,a2,a0
    cdst[i] = c;
    8000018c:	00b78023          	sb	a1,0(a5)
  for(i = 0; i < n; i++){
    80000190:	0785                	addi	a5,a5,1
    80000192:	fee79de3          	bne	a5,a4,8000018c <memset+0x12>
  }
  return dst;
}
    80000196:	6422                	ld	s0,8(sp)
    80000198:	0141                	addi	sp,sp,16
    8000019a:	8082                	ret

000000008000019c <memcmp>:

int
memcmp(const void *v1, const void *v2, uint n)
{
    8000019c:	1141                	addi	sp,sp,-16
    8000019e:	e422                	sd	s0,8(sp)
    800001a0:	0800                	addi	s0,sp,16
  const uchar *s1, *s2;

  s1 = v1;
  s2 = v2;
  while(n-- > 0){
    800001a2:	ca05                	beqz	a2,800001d2 <memcmp+0x36>
    800001a4:	fff6069b          	addiw	a3,a2,-1 # fff <_entry-0x7ffff001>
    800001a8:	1682                	slli	a3,a3,0x20
    800001aa:	9281                	srli	a3,a3,0x20
    800001ac:	0685                	addi	a3,a3,1
    800001ae:	96aa                	add	a3,a3,a0
    if(*s1 != *s2)
    800001b0:	00054783          	lbu	a5,0(a0)
    800001b4:	0005c703          	lbu	a4,0(a1)
    800001b8:	00e79863          	bne	a5,a4,800001c8 <memcmp+0x2c>
      return *s1 - *s2;
    s1++, s2++;
    800001bc:	0505                	addi	a0,a0,1
    800001be:	0585                	addi	a1,a1,1
  while(n-- > 0){
    800001c0:	fed518e3          	bne	a0,a3,800001b0 <memcmp+0x14>
  }

  return 0;
    800001c4:	4501                	li	a0,0
    800001c6:	a019                	j	800001cc <memcmp+0x30>
      return *s1 - *s2;
    800001c8:	40e7853b          	subw	a0,a5,a4
}
    800001cc:	6422                	ld	s0,8(sp)
    800001ce:	0141                	addi	sp,sp,16
    800001d0:	8082                	ret
  return 0;
    800001d2:	4501                	li	a0,0
    800001d4:	bfe5                	j	800001cc <memcmp+0x30>

00000000800001d6 <memmove>:

void*
memmove(void *dst, const void *src, uint n)
{
    800001d6:	1141                	addi	sp,sp,-16
    800001d8:	e422                	sd	s0,8(sp)
    800001da:	0800                	addi	s0,sp,16
  const char *s;
  char *d;

  if(n == 0)
    800001dc:	c205                	beqz	a2,800001fc <memmove+0x26>
    return dst;
  
  s = src;
  d = dst;
  if(s < d && s + n > d){
    800001de:	02a5e263          	bltu	a1,a0,80000202 <memmove+0x2c>
    s += n;
    d += n;
    while(n-- > 0)
      *--d = *--s;
  } else
    while(n-- > 0)
    800001e2:	1602                	slli	a2,a2,0x20
    800001e4:	9201                	srli	a2,a2,0x20
    800001e6:	00c587b3          	add	a5,a1,a2
{
    800001ea:	872a                	mv	a4,a0
      *d++ = *s++;
    800001ec:	0585                	addi	a1,a1,1
    800001ee:	0705                	addi	a4,a4,1 # fffffffffffff001 <end+0xffffffff7ffcedc1>
    800001f0:	fff5c683          	lbu	a3,-1(a1)
    800001f4:	fed70fa3          	sb	a3,-1(a4)
    while(n-- > 0)
    800001f8:	fef59ae3          	bne	a1,a5,800001ec <memmove+0x16>

  return dst;
}
    800001fc:	6422                	ld	s0,8(sp)
    800001fe:	0141                	addi	sp,sp,16
    80000200:	8082                	ret
  if(s < d && s + n > d){
    80000202:	02061693          	slli	a3,a2,0x20
    80000206:	9281                	srli	a3,a3,0x20
    80000208:	00d58733          	add	a4,a1,a3
    8000020c:	fce57be3          	bgeu	a0,a4,800001e2 <memmove+0xc>
    d += n;
    80000210:	96aa                	add	a3,a3,a0
    while(n-- > 0)
    80000212:	fff6079b          	addiw	a5,a2,-1
    80000216:	1782                	slli	a5,a5,0x20
    80000218:	9381                	srli	a5,a5,0x20
    8000021a:	fff7c793          	not	a5,a5
    8000021e:	97ba                	add	a5,a5,a4
      *--d = *--s;
    80000220:	177d                	addi	a4,a4,-1
    80000222:	16fd                	addi	a3,a3,-1
    80000224:	00074603          	lbu	a2,0(a4)
    80000228:	00c68023          	sb	a2,0(a3)
    while(n-- > 0)
    8000022c:	fee79ae3          	bne	a5,a4,80000220 <memmove+0x4a>
    80000230:	b7f1                	j	800001fc <memmove+0x26>

0000000080000232 <memcpy>:

// memcpy exists to placate GCC.  Use memmove.
void*
memcpy(void *dst, const void *src, uint n)
{
    80000232:	1141                	addi	sp,sp,-16
    80000234:	e406                	sd	ra,8(sp)
    80000236:	e022                	sd	s0,0(sp)
    80000238:	0800                	addi	s0,sp,16
  return memmove(dst, src, n);
    8000023a:	00000097          	auipc	ra,0x0
    8000023e:	f9c080e7          	jalr	-100(ra) # 800001d6 <memmove>
}
    80000242:	60a2                	ld	ra,8(sp)
    80000244:	6402                	ld	s0,0(sp)
    80000246:	0141                	addi	sp,sp,16
    80000248:	8082                	ret

000000008000024a <strncmp>:

int
strncmp(const char *p, const char *q, uint n)
{
    8000024a:	1141                	addi	sp,sp,-16
    8000024c:	e422                	sd	s0,8(sp)
    8000024e:	0800                	addi	s0,sp,16
  while(n > 0 && *p && *p == *q)
    80000250:	ce11                	beqz	a2,8000026c <strncmp+0x22>
    80000252:	00054783          	lbu	a5,0(a0)
    80000256:	cf89                	beqz	a5,80000270 <strncmp+0x26>
    80000258:	0005c703          	lbu	a4,0(a1)
    8000025c:	00f71a63          	bne	a4,a5,80000270 <strncmp+0x26>
    n--, p++, q++;
    80000260:	367d                	addiw	a2,a2,-1
    80000262:	0505                	addi	a0,a0,1
    80000264:	0585                	addi	a1,a1,1
  while(n > 0 && *p && *p == *q)
    80000266:	f675                	bnez	a2,80000252 <strncmp+0x8>
  if(n == 0)
    return 0;
    80000268:	4501                	li	a0,0
    8000026a:	a809                	j	8000027c <strncmp+0x32>
    8000026c:	4501                	li	a0,0
    8000026e:	a039                	j	8000027c <strncmp+0x32>
  if(n == 0)
    80000270:	ca09                	beqz	a2,80000282 <strncmp+0x38>
  return (uchar)*p - (uchar)*q;
    80000272:	00054503          	lbu	a0,0(a0)
    80000276:	0005c783          	lbu	a5,0(a1)
    8000027a:	9d1d                	subw	a0,a0,a5
}
    8000027c:	6422                	ld	s0,8(sp)
    8000027e:	0141                	addi	sp,sp,16
    80000280:	8082                	ret
    return 0;
    80000282:	4501                	li	a0,0
    80000284:	bfe5                	j	8000027c <strncmp+0x32>

0000000080000286 <strncpy>:

char*
strncpy(char *s, const char *t, int n)
{
    80000286:	1141                	addi	sp,sp,-16
    80000288:	e422                	sd	s0,8(sp)
    8000028a:	0800                	addi	s0,sp,16
  char *os;

  os = s;
  while(n-- > 0 && (*s++ = *t++) != 0)
    8000028c:	872a                	mv	a4,a0
    8000028e:	8832                	mv	a6,a2
    80000290:	367d                	addiw	a2,a2,-1
    80000292:	01005963          	blez	a6,800002a4 <strncpy+0x1e>
    80000296:	0705                	addi	a4,a4,1
    80000298:	0005c783          	lbu	a5,0(a1)
    8000029c:	fef70fa3          	sb	a5,-1(a4)
    800002a0:	0585                	addi	a1,a1,1
    800002a2:	f7f5                	bnez	a5,8000028e <strncpy+0x8>
    ;
  while(n-- > 0)
    800002a4:	86ba                	mv	a3,a4
    800002a6:	00c05c63          	blez	a2,800002be <strncpy+0x38>
    *s++ = 0;
    800002aa:	0685                	addi	a3,a3,1
    800002ac:	fe068fa3          	sb	zero,-1(a3)
  while(n-- > 0)
    800002b0:	40d707bb          	subw	a5,a4,a3
    800002b4:	37fd                	addiw	a5,a5,-1
    800002b6:	010787bb          	addw	a5,a5,a6
    800002ba:	fef048e3          	bgtz	a5,800002aa <strncpy+0x24>
  return os;
}
    800002be:	6422                	ld	s0,8(sp)
    800002c0:	0141                	addi	sp,sp,16
    800002c2:	8082                	ret

00000000800002c4 <safestrcpy>:

// Like strncpy but guaranteed to NUL-terminate.
char*
safestrcpy(char *s, const char *t, int n)
{
    800002c4:	1141                	addi	sp,sp,-16
    800002c6:	e422                	sd	s0,8(sp)
    800002c8:	0800                	addi	s0,sp,16
  char *os;

  os = s;
  if(n <= 0)
    800002ca:	02c05363          	blez	a2,800002f0 <safestrcpy+0x2c>
    800002ce:	fff6069b          	addiw	a3,a2,-1
    800002d2:	1682                	slli	a3,a3,0x20
    800002d4:	9281                	srli	a3,a3,0x20
    800002d6:	96ae                	add	a3,a3,a1
    800002d8:	87aa                	mv	a5,a0
    return os;
  while(--n > 0 && (*s++ = *t++) != 0)
    800002da:	00d58963          	beq	a1,a3,800002ec <safestrcpy+0x28>
    800002de:	0585                	addi	a1,a1,1
    800002e0:	0785                	addi	a5,a5,1
    800002e2:	fff5c703          	lbu	a4,-1(a1)
    800002e6:	fee78fa3          	sb	a4,-1(a5)
    800002ea:	fb65                	bnez	a4,800002da <safestrcpy+0x16>
    ;
  *s = 0;
    800002ec:	00078023          	sb	zero,0(a5)
  return os;
}
    800002f0:	6422                	ld	s0,8(sp)
    800002f2:	0141                	addi	sp,sp,16
    800002f4:	8082                	ret

00000000800002f6 <strlen>:

int
strlen(const char *s)
{
    800002f6:	1141                	addi	sp,sp,-16
    800002f8:	e422                	sd	s0,8(sp)
    800002fa:	0800                	addi	s0,sp,16
  int n;

  for(n = 0; s[n]; n++)
    800002fc:	00054783          	lbu	a5,0(a0)
    80000300:	cf91                	beqz	a5,8000031c <strlen+0x26>
    80000302:	0505                	addi	a0,a0,1
    80000304:	87aa                	mv	a5,a0
    80000306:	4685                	li	a3,1
    80000308:	9e89                	subw	a3,a3,a0
    8000030a:	00f6853b          	addw	a0,a3,a5
    8000030e:	0785                	addi	a5,a5,1
    80000310:	fff7c703          	lbu	a4,-1(a5)
    80000314:	fb7d                	bnez	a4,8000030a <strlen+0x14>
    ;
  return n;
}
    80000316:	6422                	ld	s0,8(sp)
    80000318:	0141                	addi	sp,sp,16
    8000031a:	8082                	ret
  for(n = 0; s[n]; n++)
    8000031c:	4501                	li	a0,0
    8000031e:	bfe5                	j	80000316 <strlen+0x20>

0000000080000320 <main>:
volatile static int started = 0;

// start() jumps here in supervisor mode on all CPUs.
void
main()
{
    80000320:	1141                	addi	sp,sp,-16
    80000322:	e406                	sd	ra,8(sp)
    80000324:	e022                	sd	s0,0(sp)
    80000326:	0800                	addi	s0,sp,16
  if(cpuid() == 0){
    80000328:	00001097          	auipc	ra,0x1
    8000032c:	b18080e7          	jalr	-1256(ra) # 80000e40 <cpuid>
    virtio_disk_init(); // emulated hard disk
    userinit();      // first user process
    __sync_synchronize();
    started = 1;
  } else {
    while(started == 0)
    80000330:	00009717          	auipc	a4,0x9
    80000334:	cd070713          	addi	a4,a4,-816 # 80009000 <started>
  if(cpuid() == 0){
    80000338:	c139                	beqz	a0,8000037e <main+0x5e>
    while(started == 0)
    8000033a:	431c                	lw	a5,0(a4)
    8000033c:	2781                	sext.w	a5,a5
    8000033e:	dff5                	beqz	a5,8000033a <main+0x1a>
      ;
    __sync_synchronize();
    80000340:	0ff0000f          	fence
    printf("hart %d starting\n", cpuid());
    80000344:	00001097          	auipc	ra,0x1
    80000348:	afc080e7          	jalr	-1284(ra) # 80000e40 <cpuid>
    8000034c:	85aa                	mv	a1,a0
    8000034e:	00008517          	auipc	a0,0x8
    80000352:	cea50513          	addi	a0,a0,-790 # 80008038 <etext+0x38>
    80000356:	00006097          	auipc	ra,0x6
    8000035a:	c44080e7          	jalr	-956(ra) # 80005f9a <printf>
    kvminithart();    // turn on paging
    8000035e:	00000097          	auipc	ra,0x0
    80000362:	0d8080e7          	jalr	216(ra) # 80000436 <kvminithart>
    trapinithart();   // install kernel trap vector
    80000366:	00001097          	auipc	ra,0x1
    8000036a:	7e0080e7          	jalr	2016(ra) # 80001b46 <trapinithart>
    plicinithart();   // ask PLIC for device interrupts
    8000036e:	00005097          	auipc	ra,0x5
    80000372:	112080e7          	jalr	274(ra) # 80005480 <plicinithart>
  }

  scheduler();        
    80000376:	00001097          	auipc	ra,0x1
    8000037a:	052080e7          	jalr	82(ra) # 800013c8 <scheduler>
    consoleinit();
    8000037e:	00006097          	auipc	ra,0x6
    80000382:	ae2080e7          	jalr	-1310(ra) # 80005e60 <consoleinit>
    printfinit();
    80000386:	00006097          	auipc	ra,0x6
    8000038a:	df4080e7          	jalr	-524(ra) # 8000617a <printfinit>
    printf("\n");
    8000038e:	00008517          	auipc	a0,0x8
    80000392:	cba50513          	addi	a0,a0,-838 # 80008048 <etext+0x48>
    80000396:	00006097          	auipc	ra,0x6
    8000039a:	c04080e7          	jalr	-1020(ra) # 80005f9a <printf>
    printf("xv6 kernel is booting\n");
    8000039e:	00008517          	auipc	a0,0x8
    800003a2:	c8250513          	addi	a0,a0,-894 # 80008020 <etext+0x20>
    800003a6:	00006097          	auipc	ra,0x6
    800003aa:	bf4080e7          	jalr	-1036(ra) # 80005f9a <printf>
    printf("\n");
    800003ae:	00008517          	auipc	a0,0x8
    800003b2:	c9a50513          	addi	a0,a0,-870 # 80008048 <etext+0x48>
    800003b6:	00006097          	auipc	ra,0x6
    800003ba:	be4080e7          	jalr	-1052(ra) # 80005f9a <printf>
    kinit();         // physical page allocator
    800003be:	00000097          	auipc	ra,0x0
    800003c2:	d20080e7          	jalr	-736(ra) # 800000de <kinit>
    kvminit();       // create kernel page table
    800003c6:	00000097          	auipc	ra,0x0
    800003ca:	322080e7          	jalr	802(ra) # 800006e8 <kvminit>
    kvminithart();   // turn on paging
    800003ce:	00000097          	auipc	ra,0x0
    800003d2:	068080e7          	jalr	104(ra) # 80000436 <kvminithart>
    procinit();      // process table
    800003d6:	00001097          	auipc	ra,0x1
    800003da:	984080e7          	jalr	-1660(ra) # 80000d5a <procinit>
    trapinit();      // trap vectors
    800003de:	00001097          	auipc	ra,0x1
    800003e2:	740080e7          	jalr	1856(ra) # 80001b1e <trapinit>
    trapinithart();  // install kernel trap vector
    800003e6:	00001097          	auipc	ra,0x1
    800003ea:	760080e7          	jalr	1888(ra) # 80001b46 <trapinithart>
    plicinit();      // set up interrupt controller
    800003ee:	00005097          	auipc	ra,0x5
    800003f2:	07c080e7          	jalr	124(ra) # 8000546a <plicinit>
    plicinithart();  // ask PLIC for device interrupts
    800003f6:	00005097          	auipc	ra,0x5
    800003fa:	08a080e7          	jalr	138(ra) # 80005480 <plicinithart>
    binit();         // buffer cache
    800003fe:	00002097          	auipc	ra,0x2
    80000402:	24e080e7          	jalr	590(ra) # 8000264c <binit>
    iinit();         // inode table
    80000406:	00003097          	auipc	ra,0x3
    8000040a:	8dc080e7          	jalr	-1828(ra) # 80002ce2 <iinit>
    fileinit();      // file table
    8000040e:	00004097          	auipc	ra,0x4
    80000412:	88e080e7          	jalr	-1906(ra) # 80003c9c <fileinit>
    virtio_disk_init(); // emulated hard disk
    80000416:	00005097          	auipc	ra,0x5
    8000041a:	18a080e7          	jalr	394(ra) # 800055a0 <virtio_disk_init>
    userinit();      // first user process
    8000041e:	00001097          	auipc	ra,0x1
    80000422:	d26080e7          	jalr	-730(ra) # 80001144 <userinit>
    __sync_synchronize();
    80000426:	0ff0000f          	fence
    started = 1;
    8000042a:	4785                	li	a5,1
    8000042c:	00009717          	auipc	a4,0x9
    80000430:	bcf72a23          	sw	a5,-1068(a4) # 80009000 <started>
    80000434:	b789                	j	80000376 <main+0x56>

0000000080000436 <kvminithart>:

// Switch h/w page table register to the kernel's page table,
// and enable paging.
void
kvminithart()
{
    80000436:	1141                	addi	sp,sp,-16
    80000438:	e422                	sd	s0,8(sp)
    8000043a:	0800                	addi	s0,sp,16
  w_satp(MAKE_SATP(kernel_pagetable));
    8000043c:	00009797          	auipc	a5,0x9
    80000440:	bcc7b783          	ld	a5,-1076(a5) # 80009008 <kernel_pagetable>
    80000444:	83b1                	srli	a5,a5,0xc
    80000446:	577d                	li	a4,-1
    80000448:	177e                	slli	a4,a4,0x3f
    8000044a:	8fd9                	or	a5,a5,a4
// supervisor address translation and protection;
// holds the address of the page table.
static inline void 
w_satp(uint64 x)
{
  asm volatile("csrw satp, %0" : : "r" (x));
    8000044c:	18079073          	csrw	satp,a5
// flush the TLB.
static inline void
sfence_vma()
{
  // the zero, zero means flush all TLB entries.
  asm volatile("sfence.vma zero, zero");
    80000450:	12000073          	sfence.vma
  sfence_vma();
}
    80000454:	6422                	ld	s0,8(sp)
    80000456:	0141                	addi	sp,sp,16
    80000458:	8082                	ret

000000008000045a <walk>:
//   21..29 -- 9 bits of level-1 index.
//   12..20 -- 9 bits of level-0 index.
//    0..11 -- 12 bits of byte offset within the page.
pte_t *
walk(pagetable_t pagetable, uint64 va, int alloc)
{
    8000045a:	7139                	addi	sp,sp,-64
    8000045c:	fc06                	sd	ra,56(sp)
    8000045e:	f822                	sd	s0,48(sp)
    80000460:	f426                	sd	s1,40(sp)
    80000462:	f04a                	sd	s2,32(sp)
    80000464:	ec4e                	sd	s3,24(sp)
    80000466:	e852                	sd	s4,16(sp)
    80000468:	e456                	sd	s5,8(sp)
    8000046a:	e05a                	sd	s6,0(sp)
    8000046c:	0080                	addi	s0,sp,64
    8000046e:	84aa                	mv	s1,a0
    80000470:	89ae                	mv	s3,a1
    80000472:	8ab2                	mv	s5,a2
  if(va >= MAXVA)
    80000474:	57fd                	li	a5,-1
    80000476:	83e9                	srli	a5,a5,0x1a
    80000478:	4a79                	li	s4,30
    panic("walk");

  for(int level = 2; level > 0; level--) {
    8000047a:	4b31                	li	s6,12
  if(va >= MAXVA)
    8000047c:	04b7f263          	bgeu	a5,a1,800004c0 <walk+0x66>
    panic("walk");
    80000480:	00008517          	auipc	a0,0x8
    80000484:	bd050513          	addi	a0,a0,-1072 # 80008050 <etext+0x50>
    80000488:	00006097          	auipc	ra,0x6
    8000048c:	ac8080e7          	jalr	-1336(ra) # 80005f50 <panic>
    pte_t *pte = &pagetable[PX(level, va)];
    if(*pte & PTE_V) {
      pagetable = (pagetable_t)PTE2PA(*pte);
    } else {
      if(!alloc || (pagetable = (pde_t*)kalloc()) == 0)
    80000490:	060a8663          	beqz	s5,800004fc <walk+0xa2>
    80000494:	00000097          	auipc	ra,0x0
    80000498:	c86080e7          	jalr	-890(ra) # 8000011a <kalloc>
    8000049c:	84aa                	mv	s1,a0
    8000049e:	c529                	beqz	a0,800004e8 <walk+0x8e>
        return 0;
      memset(pagetable, 0, PGSIZE);
    800004a0:	6605                	lui	a2,0x1
    800004a2:	4581                	li	a1,0
    800004a4:	00000097          	auipc	ra,0x0
    800004a8:	cd6080e7          	jalr	-810(ra) # 8000017a <memset>
      *pte = PA2PTE(pagetable) | PTE_V;
    800004ac:	00c4d793          	srli	a5,s1,0xc
    800004b0:	07aa                	slli	a5,a5,0xa
    800004b2:	0017e793          	ori	a5,a5,1
    800004b6:	00f93023          	sd	a5,0(s2)
  for(int level = 2; level > 0; level--) {
    800004ba:	3a5d                	addiw	s4,s4,-9 # ffffffffffffeff7 <end+0xffffffff7ffcedb7>
    800004bc:	036a0063          	beq	s4,s6,800004dc <walk+0x82>
    pte_t *pte = &pagetable[PX(level, va)];
    800004c0:	0149d933          	srl	s2,s3,s4
    800004c4:	1ff97913          	andi	s2,s2,511
    800004c8:	090e                	slli	s2,s2,0x3
    800004ca:	9926                	add	s2,s2,s1
    if(*pte & PTE_V) {
    800004cc:	00093483          	ld	s1,0(s2)
    800004d0:	0014f793          	andi	a5,s1,1
    800004d4:	dfd5                	beqz	a5,80000490 <walk+0x36>
      pagetable = (pagetable_t)PTE2PA(*pte);
    800004d6:	80a9                	srli	s1,s1,0xa
    800004d8:	04b2                	slli	s1,s1,0xc
    800004da:	b7c5                	j	800004ba <walk+0x60>
    }
  }
  return &pagetable[PX(0, va)];
    800004dc:	00c9d513          	srli	a0,s3,0xc
    800004e0:	1ff57513          	andi	a0,a0,511
    800004e4:	050e                	slli	a0,a0,0x3
    800004e6:	9526                	add	a0,a0,s1
}
    800004e8:	70e2                	ld	ra,56(sp)
    800004ea:	7442                	ld	s0,48(sp)
    800004ec:	74a2                	ld	s1,40(sp)
    800004ee:	7902                	ld	s2,32(sp)
    800004f0:	69e2                	ld	s3,24(sp)
    800004f2:	6a42                	ld	s4,16(sp)
    800004f4:	6aa2                	ld	s5,8(sp)
    800004f6:	6b02                	ld	s6,0(sp)
    800004f8:	6121                	addi	sp,sp,64
    800004fa:	8082                	ret
        return 0;
    800004fc:	4501                	li	a0,0
    800004fe:	b7ed                	j	800004e8 <walk+0x8e>

0000000080000500 <walkaddr>:
walkaddr(pagetable_t pagetable, uint64 va)
{
  pte_t *pte;
  uint64 pa;

  if(va >= MAXVA)
    80000500:	57fd                	li	a5,-1
    80000502:	83e9                	srli	a5,a5,0x1a
    80000504:	00b7f463          	bgeu	a5,a1,8000050c <walkaddr+0xc>
    return 0;
    80000508:	4501                	li	a0,0
    return 0;
  if((*pte & PTE_U) == 0)
    return 0;
  pa = PTE2PA(*pte);
  return pa;
}
    8000050a:	8082                	ret
{
    8000050c:	1141                	addi	sp,sp,-16
    8000050e:	e406                	sd	ra,8(sp)
    80000510:	e022                	sd	s0,0(sp)
    80000512:	0800                	addi	s0,sp,16
  pte = walk(pagetable, va, 0);
    80000514:	4601                	li	a2,0
    80000516:	00000097          	auipc	ra,0x0
    8000051a:	f44080e7          	jalr	-188(ra) # 8000045a <walk>
  if(pte == 0)
    8000051e:	c105                	beqz	a0,8000053e <walkaddr+0x3e>
  if((*pte & PTE_V) == 0)
    80000520:	611c                	ld	a5,0(a0)
  if((*pte & PTE_U) == 0)
    80000522:	0117f693          	andi	a3,a5,17
    80000526:	4745                	li	a4,17
    return 0;
    80000528:	4501                	li	a0,0
  if((*pte & PTE_U) == 0)
    8000052a:	00e68663          	beq	a3,a4,80000536 <walkaddr+0x36>
}
    8000052e:	60a2                	ld	ra,8(sp)
    80000530:	6402                	ld	s0,0(sp)
    80000532:	0141                	addi	sp,sp,16
    80000534:	8082                	ret
  pa = PTE2PA(*pte);
    80000536:	83a9                	srli	a5,a5,0xa
    80000538:	00c79513          	slli	a0,a5,0xc
  return pa;
    8000053c:	bfcd                	j	8000052e <walkaddr+0x2e>
    return 0;
    8000053e:	4501                	li	a0,0
    80000540:	b7fd                	j	8000052e <walkaddr+0x2e>

0000000080000542 <mappages>:
// physical addresses starting at pa. va and size might not
// be page-aligned. Returns 0 on success, -1 if walk() couldn't
// allocate a needed page-table page.
int
mappages(pagetable_t pagetable, uint64 va, uint64 size, uint64 pa, int perm)
{
    80000542:	715d                	addi	sp,sp,-80
    80000544:	e486                	sd	ra,72(sp)
    80000546:	e0a2                	sd	s0,64(sp)
    80000548:	fc26                	sd	s1,56(sp)
    8000054a:	f84a                	sd	s2,48(sp)
    8000054c:	f44e                	sd	s3,40(sp)
    8000054e:	f052                	sd	s4,32(sp)
    80000550:	ec56                	sd	s5,24(sp)
    80000552:	e85a                	sd	s6,16(sp)
    80000554:	e45e                	sd	s7,8(sp)
    80000556:	0880                	addi	s0,sp,80
  uint64 a, last;
  pte_t *pte;

  if(size == 0)
    80000558:	c639                	beqz	a2,800005a6 <mappages+0x64>
    8000055a:	8aaa                	mv	s5,a0
    8000055c:	8b3a                	mv	s6,a4
    panic("mappages: size");
  
  a = PGROUNDDOWN(va);
    8000055e:	777d                	lui	a4,0xfffff
    80000560:	00e5f7b3          	and	a5,a1,a4
  last = PGROUNDDOWN(va + size - 1);
    80000564:	fff58993          	addi	s3,a1,-1
    80000568:	99b2                	add	s3,s3,a2
    8000056a:	00e9f9b3          	and	s3,s3,a4
  a = PGROUNDDOWN(va);
    8000056e:	893e                	mv	s2,a5
    80000570:	40f68a33          	sub	s4,a3,a5
    if(*pte & PTE_V)
      panic("mappages: remap");
    *pte = PA2PTE(pa) | perm | PTE_V;
    if(a == last)
      break;
    a += PGSIZE;
    80000574:	6b85                	lui	s7,0x1
    80000576:	012a04b3          	add	s1,s4,s2
    if((pte = walk(pagetable, a, 1)) == 0)
    8000057a:	4605                	li	a2,1
    8000057c:	85ca                	mv	a1,s2
    8000057e:	8556                	mv	a0,s5
    80000580:	00000097          	auipc	ra,0x0
    80000584:	eda080e7          	jalr	-294(ra) # 8000045a <walk>
    80000588:	cd1d                	beqz	a0,800005c6 <mappages+0x84>
    if(*pte & PTE_V)
    8000058a:	611c                	ld	a5,0(a0)
    8000058c:	8b85                	andi	a5,a5,1
    8000058e:	e785                	bnez	a5,800005b6 <mappages+0x74>
    *pte = PA2PTE(pa) | perm | PTE_V;
    80000590:	80b1                	srli	s1,s1,0xc
    80000592:	04aa                	slli	s1,s1,0xa
    80000594:	0164e4b3          	or	s1,s1,s6
    80000598:	0014e493          	ori	s1,s1,1
    8000059c:	e104                	sd	s1,0(a0)
    if(a == last)
    8000059e:	05390063          	beq	s2,s3,800005de <mappages+0x9c>
    a += PGSIZE;
    800005a2:	995e                	add	s2,s2,s7
    if((pte = walk(pagetable, a, 1)) == 0)
    800005a4:	bfc9                	j	80000576 <mappages+0x34>
    panic("mappages: size");
    800005a6:	00008517          	auipc	a0,0x8
    800005aa:	ab250513          	addi	a0,a0,-1358 # 80008058 <etext+0x58>
    800005ae:	00006097          	auipc	ra,0x6
    800005b2:	9a2080e7          	jalr	-1630(ra) # 80005f50 <panic>
      panic("mappages: remap");
    800005b6:	00008517          	auipc	a0,0x8
    800005ba:	ab250513          	addi	a0,a0,-1358 # 80008068 <etext+0x68>
    800005be:	00006097          	auipc	ra,0x6
    800005c2:	992080e7          	jalr	-1646(ra) # 80005f50 <panic>
      return -1;
    800005c6:	557d                	li	a0,-1
    pa += PGSIZE;
  }
  return 0;
}
    800005c8:	60a6                	ld	ra,72(sp)
    800005ca:	6406                	ld	s0,64(sp)
    800005cc:	74e2                	ld	s1,56(sp)
    800005ce:	7942                	ld	s2,48(sp)
    800005d0:	79a2                	ld	s3,40(sp)
    800005d2:	7a02                	ld	s4,32(sp)
    800005d4:	6ae2                	ld	s5,24(sp)
    800005d6:	6b42                	ld	s6,16(sp)
    800005d8:	6ba2                	ld	s7,8(sp)
    800005da:	6161                	addi	sp,sp,80
    800005dc:	8082                	ret
  return 0;
    800005de:	4501                	li	a0,0
    800005e0:	b7e5                	j	800005c8 <mappages+0x86>

00000000800005e2 <kvmmap>:
{
    800005e2:	1141                	addi	sp,sp,-16
    800005e4:	e406                	sd	ra,8(sp)
    800005e6:	e022                	sd	s0,0(sp)
    800005e8:	0800                	addi	s0,sp,16
    800005ea:	87b6                	mv	a5,a3
  if(mappages(kpgtbl, va, sz, pa, perm) != 0)
    800005ec:	86b2                	mv	a3,a2
    800005ee:	863e                	mv	a2,a5
    800005f0:	00000097          	auipc	ra,0x0
    800005f4:	f52080e7          	jalr	-174(ra) # 80000542 <mappages>
    800005f8:	e509                	bnez	a0,80000602 <kvmmap+0x20>
}
    800005fa:	60a2                	ld	ra,8(sp)
    800005fc:	6402                	ld	s0,0(sp)
    800005fe:	0141                	addi	sp,sp,16
    80000600:	8082                	ret
    panic("kvmmap");
    80000602:	00008517          	auipc	a0,0x8
    80000606:	a7650513          	addi	a0,a0,-1418 # 80008078 <etext+0x78>
    8000060a:	00006097          	auipc	ra,0x6
    8000060e:	946080e7          	jalr	-1722(ra) # 80005f50 <panic>

0000000080000612 <kvmmake>:
{
    80000612:	1101                	addi	sp,sp,-32
    80000614:	ec06                	sd	ra,24(sp)
    80000616:	e822                	sd	s0,16(sp)
    80000618:	e426                	sd	s1,8(sp)
    8000061a:	e04a                	sd	s2,0(sp)
    8000061c:	1000                	addi	s0,sp,32
  kpgtbl = (pagetable_t) kalloc();
    8000061e:	00000097          	auipc	ra,0x0
    80000622:	afc080e7          	jalr	-1284(ra) # 8000011a <kalloc>
    80000626:	84aa                	mv	s1,a0
  memset(kpgtbl, 0, PGSIZE);
    80000628:	6605                	lui	a2,0x1
    8000062a:	4581                	li	a1,0
    8000062c:	00000097          	auipc	ra,0x0
    80000630:	b4e080e7          	jalr	-1202(ra) # 8000017a <memset>
  kvmmap(kpgtbl, UART0, UART0, PGSIZE, PTE_R | PTE_W);
    80000634:	4719                	li	a4,6
    80000636:	6685                	lui	a3,0x1
    80000638:	10000637          	lui	a2,0x10000
    8000063c:	100005b7          	lui	a1,0x10000
    80000640:	8526                	mv	a0,s1
    80000642:	00000097          	auipc	ra,0x0
    80000646:	fa0080e7          	jalr	-96(ra) # 800005e2 <kvmmap>
  kvmmap(kpgtbl, VIRTIO0, VIRTIO0, PGSIZE, PTE_R | PTE_W);
    8000064a:	4719                	li	a4,6
    8000064c:	6685                	lui	a3,0x1
    8000064e:	10001637          	lui	a2,0x10001
    80000652:	100015b7          	lui	a1,0x10001
    80000656:	8526                	mv	a0,s1
    80000658:	00000097          	auipc	ra,0x0
    8000065c:	f8a080e7          	jalr	-118(ra) # 800005e2 <kvmmap>
  kvmmap(kpgtbl, PLIC, PLIC, 0x400000, PTE_R | PTE_W);
    80000660:	4719                	li	a4,6
    80000662:	004006b7          	lui	a3,0x400
    80000666:	0c000637          	lui	a2,0xc000
    8000066a:	0c0005b7          	lui	a1,0xc000
    8000066e:	8526                	mv	a0,s1
    80000670:	00000097          	auipc	ra,0x0
    80000674:	f72080e7          	jalr	-142(ra) # 800005e2 <kvmmap>
  kvmmap(kpgtbl, KERNBASE, KERNBASE, (uint64)etext-KERNBASE, PTE_R | PTE_X);
    80000678:	00008917          	auipc	s2,0x8
    8000067c:	98890913          	addi	s2,s2,-1656 # 80008000 <etext>
    80000680:	4729                	li	a4,10
    80000682:	80008697          	auipc	a3,0x80008
    80000686:	97e68693          	addi	a3,a3,-1666 # 8000 <_entry-0x7fff8000>
    8000068a:	4605                	li	a2,1
    8000068c:	067e                	slli	a2,a2,0x1f
    8000068e:	85b2                	mv	a1,a2
    80000690:	8526                	mv	a0,s1
    80000692:	00000097          	auipc	ra,0x0
    80000696:	f50080e7          	jalr	-176(ra) # 800005e2 <kvmmap>
  kvmmap(kpgtbl, (uint64)etext, (uint64)etext, PHYSTOP-(uint64)etext, PTE_R | PTE_W);
    8000069a:	4719                	li	a4,6
    8000069c:	46c5                	li	a3,17
    8000069e:	06ee                	slli	a3,a3,0x1b
    800006a0:	412686b3          	sub	a3,a3,s2
    800006a4:	864a                	mv	a2,s2
    800006a6:	85ca                	mv	a1,s2
    800006a8:	8526                	mv	a0,s1
    800006aa:	00000097          	auipc	ra,0x0
    800006ae:	f38080e7          	jalr	-200(ra) # 800005e2 <kvmmap>
  kvmmap(kpgtbl, TRAMPOLINE, (uint64)trampoline, PGSIZE, PTE_R | PTE_X);
    800006b2:	4729                	li	a4,10
    800006b4:	6685                	lui	a3,0x1
    800006b6:	00007617          	auipc	a2,0x7
    800006ba:	94a60613          	addi	a2,a2,-1718 # 80007000 <_trampoline>
    800006be:	040005b7          	lui	a1,0x4000
    800006c2:	15fd                	addi	a1,a1,-1 # 3ffffff <_entry-0x7c000001>
    800006c4:	05b2                	slli	a1,a1,0xc
    800006c6:	8526                	mv	a0,s1
    800006c8:	00000097          	auipc	ra,0x0
    800006cc:	f1a080e7          	jalr	-230(ra) # 800005e2 <kvmmap>
  proc_mapstacks(kpgtbl);
    800006d0:	8526                	mv	a0,s1
    800006d2:	00000097          	auipc	ra,0x0
    800006d6:	5f2080e7          	jalr	1522(ra) # 80000cc4 <proc_mapstacks>
}
    800006da:	8526                	mv	a0,s1
    800006dc:	60e2                	ld	ra,24(sp)
    800006de:	6442                	ld	s0,16(sp)
    800006e0:	64a2                	ld	s1,8(sp)
    800006e2:	6902                	ld	s2,0(sp)
    800006e4:	6105                	addi	sp,sp,32
    800006e6:	8082                	ret

00000000800006e8 <kvminit>:
{
    800006e8:	1141                	addi	sp,sp,-16
    800006ea:	e406                	sd	ra,8(sp)
    800006ec:	e022                	sd	s0,0(sp)
    800006ee:	0800                	addi	s0,sp,16
  kernel_pagetable = kvmmake();
    800006f0:	00000097          	auipc	ra,0x0
    800006f4:	f22080e7          	jalr	-222(ra) # 80000612 <kvmmake>
    800006f8:	00009797          	auipc	a5,0x9
    800006fc:	90a7b823          	sd	a0,-1776(a5) # 80009008 <kernel_pagetable>
}
    80000700:	60a2                	ld	ra,8(sp)
    80000702:	6402                	ld	s0,0(sp)
    80000704:	0141                	addi	sp,sp,16
    80000706:	8082                	ret

0000000080000708 <uvmunmap>:
// Remove npages of mappings starting from va. va must be
// page-aligned. The mappings must exist.
// Optionally free the physical memory.
void
uvmunmap(pagetable_t pagetable, uint64 va, uint64 npages, int do_free)
{
    80000708:	715d                	addi	sp,sp,-80
    8000070a:	e486                	sd	ra,72(sp)
    8000070c:	e0a2                	sd	s0,64(sp)
    8000070e:	fc26                	sd	s1,56(sp)
    80000710:	f84a                	sd	s2,48(sp)
    80000712:	f44e                	sd	s3,40(sp)
    80000714:	f052                	sd	s4,32(sp)
    80000716:	ec56                	sd	s5,24(sp)
    80000718:	e85a                	sd	s6,16(sp)
    8000071a:	e45e                	sd	s7,8(sp)
    8000071c:	0880                	addi	s0,sp,80
  uint64 a;
  pte_t *pte;

  if((va % PGSIZE) != 0)
    8000071e:	03459793          	slli	a5,a1,0x34
    80000722:	e795                	bnez	a5,8000074e <uvmunmap+0x46>
    80000724:	8a2a                	mv	s4,a0
    80000726:	892e                	mv	s2,a1
    80000728:	8ab6                	mv	s5,a3
    panic("uvmunmap: not aligned");

  for(a = va; a < va + npages*PGSIZE; a += PGSIZE){
    8000072a:	0632                	slli	a2,a2,0xc
    8000072c:	00b609b3          	add	s3,a2,a1
      panic("uvmunmap: walk");
    if((*pte & PTE_V) == 0)
      // not mapped region for sys_munmap
      // panic("uvmunmap: not mapped");
      return;
    if(PTE_FLAGS(*pte) == PTE_V)
    80000730:	4b85                	li	s7,1
  for(a = va; a < va + npages*PGSIZE; a += PGSIZE){
    80000732:	6b05                	lui	s6,0x1
    80000734:	0535ea63          	bltu	a1,s3,80000788 <uvmunmap+0x80>
      uint64 pa = PTE2PA(*pte);
      kfree((void*)pa);
    }
    *pte = 0;
  }
}
    80000738:	60a6                	ld	ra,72(sp)
    8000073a:	6406                	ld	s0,64(sp)
    8000073c:	74e2                	ld	s1,56(sp)
    8000073e:	7942                	ld	s2,48(sp)
    80000740:	79a2                	ld	s3,40(sp)
    80000742:	7a02                	ld	s4,32(sp)
    80000744:	6ae2                	ld	s5,24(sp)
    80000746:	6b42                	ld	s6,16(sp)
    80000748:	6ba2                	ld	s7,8(sp)
    8000074a:	6161                	addi	sp,sp,80
    8000074c:	8082                	ret
    panic("uvmunmap: not aligned");
    8000074e:	00008517          	auipc	a0,0x8
    80000752:	93250513          	addi	a0,a0,-1742 # 80008080 <etext+0x80>
    80000756:	00005097          	auipc	ra,0x5
    8000075a:	7fa080e7          	jalr	2042(ra) # 80005f50 <panic>
      panic("uvmunmap: walk");
    8000075e:	00008517          	auipc	a0,0x8
    80000762:	93a50513          	addi	a0,a0,-1734 # 80008098 <etext+0x98>
    80000766:	00005097          	auipc	ra,0x5
    8000076a:	7ea080e7          	jalr	2026(ra) # 80005f50 <panic>
      panic("uvmunmap: not a leaf");
    8000076e:	00008517          	auipc	a0,0x8
    80000772:	93a50513          	addi	a0,a0,-1734 # 800080a8 <etext+0xa8>
    80000776:	00005097          	auipc	ra,0x5
    8000077a:	7da080e7          	jalr	2010(ra) # 80005f50 <panic>
    *pte = 0;
    8000077e:	0004b023          	sd	zero,0(s1)
  for(a = va; a < va + npages*PGSIZE; a += PGSIZE){
    80000782:	995a                	add	s2,s2,s6
    80000784:	fb397ae3          	bgeu	s2,s3,80000738 <uvmunmap+0x30>
    if((pte = walk(pagetable, a, 0)) == 0)
    80000788:	4601                	li	a2,0
    8000078a:	85ca                	mv	a1,s2
    8000078c:	8552                	mv	a0,s4
    8000078e:	00000097          	auipc	ra,0x0
    80000792:	ccc080e7          	jalr	-820(ra) # 8000045a <walk>
    80000796:	84aa                	mv	s1,a0
    80000798:	d179                	beqz	a0,8000075e <uvmunmap+0x56>
    if((*pte & PTE_V) == 0)
    8000079a:	611c                	ld	a5,0(a0)
    8000079c:	0017f713          	andi	a4,a5,1
    800007a0:	df41                	beqz	a4,80000738 <uvmunmap+0x30>
    if(PTE_FLAGS(*pte) == PTE_V)
    800007a2:	3ff7f713          	andi	a4,a5,1023
    800007a6:	fd7704e3          	beq	a4,s7,8000076e <uvmunmap+0x66>
    if(do_free){
    800007aa:	fc0a8ae3          	beqz	s5,8000077e <uvmunmap+0x76>
      uint64 pa = PTE2PA(*pte);
    800007ae:	83a9                	srli	a5,a5,0xa
      kfree((void*)pa);
    800007b0:	00c79513          	slli	a0,a5,0xc
    800007b4:	00000097          	auipc	ra,0x0
    800007b8:	868080e7          	jalr	-1944(ra) # 8000001c <kfree>
    800007bc:	b7c9                	j	8000077e <uvmunmap+0x76>

00000000800007be <uvmcreate>:

// create an empty user page table.
// returns 0 if out of memory.
pagetable_t
uvmcreate()
{
    800007be:	1101                	addi	sp,sp,-32
    800007c0:	ec06                	sd	ra,24(sp)
    800007c2:	e822                	sd	s0,16(sp)
    800007c4:	e426                	sd	s1,8(sp)
    800007c6:	1000                	addi	s0,sp,32
  pagetable_t pagetable;
  pagetable = (pagetable_t) kalloc();
    800007c8:	00000097          	auipc	ra,0x0
    800007cc:	952080e7          	jalr	-1710(ra) # 8000011a <kalloc>
    800007d0:	84aa                	mv	s1,a0
  if(pagetable == 0)
    800007d2:	c519                	beqz	a0,800007e0 <uvmcreate+0x22>
    return 0;
  memset(pagetable, 0, PGSIZE);
    800007d4:	6605                	lui	a2,0x1
    800007d6:	4581                	li	a1,0
    800007d8:	00000097          	auipc	ra,0x0
    800007dc:	9a2080e7          	jalr	-1630(ra) # 8000017a <memset>
  return pagetable;
}
    800007e0:	8526                	mv	a0,s1
    800007e2:	60e2                	ld	ra,24(sp)
    800007e4:	6442                	ld	s0,16(sp)
    800007e6:	64a2                	ld	s1,8(sp)
    800007e8:	6105                	addi	sp,sp,32
    800007ea:	8082                	ret

00000000800007ec <uvminit>:
// Load the user initcode into address 0 of pagetable,
// for the very first process.
// sz must be less than a page.
void
uvminit(pagetable_t pagetable, uchar *src, uint sz)
{
    800007ec:	7179                	addi	sp,sp,-48
    800007ee:	f406                	sd	ra,40(sp)
    800007f0:	f022                	sd	s0,32(sp)
    800007f2:	ec26                	sd	s1,24(sp)
    800007f4:	e84a                	sd	s2,16(sp)
    800007f6:	e44e                	sd	s3,8(sp)
    800007f8:	e052                	sd	s4,0(sp)
    800007fa:	1800                	addi	s0,sp,48
  char *mem;

  if(sz >= PGSIZE)
    800007fc:	6785                	lui	a5,0x1
    800007fe:	04f67863          	bgeu	a2,a5,8000084e <uvminit+0x62>
    80000802:	8a2a                	mv	s4,a0
    80000804:	89ae                	mv	s3,a1
    80000806:	84b2                	mv	s1,a2
    panic("inituvm: more than a page");
  mem = kalloc();
    80000808:	00000097          	auipc	ra,0x0
    8000080c:	912080e7          	jalr	-1774(ra) # 8000011a <kalloc>
    80000810:	892a                	mv	s2,a0
  memset(mem, 0, PGSIZE);
    80000812:	6605                	lui	a2,0x1
    80000814:	4581                	li	a1,0
    80000816:	00000097          	auipc	ra,0x0
    8000081a:	964080e7          	jalr	-1692(ra) # 8000017a <memset>
  mappages(pagetable, 0, PGSIZE, (uint64)mem, PTE_W|PTE_R|PTE_X|PTE_U);
    8000081e:	4779                	li	a4,30
    80000820:	86ca                	mv	a3,s2
    80000822:	6605                	lui	a2,0x1
    80000824:	4581                	li	a1,0
    80000826:	8552                	mv	a0,s4
    80000828:	00000097          	auipc	ra,0x0
    8000082c:	d1a080e7          	jalr	-742(ra) # 80000542 <mappages>
  memmove(mem, src, sz);
    80000830:	8626                	mv	a2,s1
    80000832:	85ce                	mv	a1,s3
    80000834:	854a                	mv	a0,s2
    80000836:	00000097          	auipc	ra,0x0
    8000083a:	9a0080e7          	jalr	-1632(ra) # 800001d6 <memmove>
}
    8000083e:	70a2                	ld	ra,40(sp)
    80000840:	7402                	ld	s0,32(sp)
    80000842:	64e2                	ld	s1,24(sp)
    80000844:	6942                	ld	s2,16(sp)
    80000846:	69a2                	ld	s3,8(sp)
    80000848:	6a02                	ld	s4,0(sp)
    8000084a:	6145                	addi	sp,sp,48
    8000084c:	8082                	ret
    panic("inituvm: more than a page");
    8000084e:	00008517          	auipc	a0,0x8
    80000852:	87250513          	addi	a0,a0,-1934 # 800080c0 <etext+0xc0>
    80000856:	00005097          	auipc	ra,0x5
    8000085a:	6fa080e7          	jalr	1786(ra) # 80005f50 <panic>

000000008000085e <uvmdealloc>:
// newsz.  oldsz and newsz need not be page-aligned, nor does newsz
// need to be less than oldsz.  oldsz can be larger than the actual
// process size.  Returns the new process size.
uint64
uvmdealloc(pagetable_t pagetable, uint64 oldsz, uint64 newsz)
{
    8000085e:	1101                	addi	sp,sp,-32
    80000860:	ec06                	sd	ra,24(sp)
    80000862:	e822                	sd	s0,16(sp)
    80000864:	e426                	sd	s1,8(sp)
    80000866:	1000                	addi	s0,sp,32
  if(newsz >= oldsz)
    return oldsz;
    80000868:	84ae                	mv	s1,a1
  if(newsz >= oldsz)
    8000086a:	00b67d63          	bgeu	a2,a1,80000884 <uvmdealloc+0x26>
    8000086e:	84b2                	mv	s1,a2

  if(PGROUNDUP(newsz) < PGROUNDUP(oldsz)){
    80000870:	6785                	lui	a5,0x1
    80000872:	17fd                	addi	a5,a5,-1 # fff <_entry-0x7ffff001>
    80000874:	00f60733          	add	a4,a2,a5
    80000878:	76fd                	lui	a3,0xfffff
    8000087a:	8f75                	and	a4,a4,a3
    8000087c:	97ae                	add	a5,a5,a1
    8000087e:	8ff5                	and	a5,a5,a3
    80000880:	00f76863          	bltu	a4,a5,80000890 <uvmdealloc+0x32>
    int npages = (PGROUNDUP(oldsz) - PGROUNDUP(newsz)) / PGSIZE;
    uvmunmap(pagetable, PGROUNDUP(newsz), npages, 1);
  }

  return newsz;
}
    80000884:	8526                	mv	a0,s1
    80000886:	60e2                	ld	ra,24(sp)
    80000888:	6442                	ld	s0,16(sp)
    8000088a:	64a2                	ld	s1,8(sp)
    8000088c:	6105                	addi	sp,sp,32
    8000088e:	8082                	ret
    int npages = (PGROUNDUP(oldsz) - PGROUNDUP(newsz)) / PGSIZE;
    80000890:	8f99                	sub	a5,a5,a4
    80000892:	83b1                	srli	a5,a5,0xc
    uvmunmap(pagetable, PGROUNDUP(newsz), npages, 1);
    80000894:	4685                	li	a3,1
    80000896:	0007861b          	sext.w	a2,a5
    8000089a:	85ba                	mv	a1,a4
    8000089c:	00000097          	auipc	ra,0x0
    800008a0:	e6c080e7          	jalr	-404(ra) # 80000708 <uvmunmap>
    800008a4:	b7c5                	j	80000884 <uvmdealloc+0x26>

00000000800008a6 <uvmalloc>:
  if(newsz < oldsz)
    800008a6:	0ab66163          	bltu	a2,a1,80000948 <uvmalloc+0xa2>
{
    800008aa:	7139                	addi	sp,sp,-64
    800008ac:	fc06                	sd	ra,56(sp)
    800008ae:	f822                	sd	s0,48(sp)
    800008b0:	f426                	sd	s1,40(sp)
    800008b2:	f04a                	sd	s2,32(sp)
    800008b4:	ec4e                	sd	s3,24(sp)
    800008b6:	e852                	sd	s4,16(sp)
    800008b8:	e456                	sd	s5,8(sp)
    800008ba:	0080                	addi	s0,sp,64
    800008bc:	8aaa                	mv	s5,a0
    800008be:	8a32                	mv	s4,a2
  oldsz = PGROUNDUP(oldsz);
    800008c0:	6785                	lui	a5,0x1
    800008c2:	17fd                	addi	a5,a5,-1 # fff <_entry-0x7ffff001>
    800008c4:	95be                	add	a1,a1,a5
    800008c6:	77fd                	lui	a5,0xfffff
    800008c8:	00f5f9b3          	and	s3,a1,a5
  for(a = oldsz; a < newsz; a += PGSIZE){
    800008cc:	08c9f063          	bgeu	s3,a2,8000094c <uvmalloc+0xa6>
    800008d0:	894e                	mv	s2,s3
    mem = kalloc();
    800008d2:	00000097          	auipc	ra,0x0
    800008d6:	848080e7          	jalr	-1976(ra) # 8000011a <kalloc>
    800008da:	84aa                	mv	s1,a0
    if(mem == 0){
    800008dc:	c51d                	beqz	a0,8000090a <uvmalloc+0x64>
    memset(mem, 0, PGSIZE);
    800008de:	6605                	lui	a2,0x1
    800008e0:	4581                	li	a1,0
    800008e2:	00000097          	auipc	ra,0x0
    800008e6:	898080e7          	jalr	-1896(ra) # 8000017a <memset>
    if(mappages(pagetable, a, PGSIZE, (uint64)mem, PTE_W|PTE_X|PTE_R|PTE_U) != 0){
    800008ea:	4779                	li	a4,30
    800008ec:	86a6                	mv	a3,s1
    800008ee:	6605                	lui	a2,0x1
    800008f0:	85ca                	mv	a1,s2
    800008f2:	8556                	mv	a0,s5
    800008f4:	00000097          	auipc	ra,0x0
    800008f8:	c4e080e7          	jalr	-946(ra) # 80000542 <mappages>
    800008fc:	e905                	bnez	a0,8000092c <uvmalloc+0x86>
  for(a = oldsz; a < newsz; a += PGSIZE){
    800008fe:	6785                	lui	a5,0x1
    80000900:	993e                	add	s2,s2,a5
    80000902:	fd4968e3          	bltu	s2,s4,800008d2 <uvmalloc+0x2c>
  return newsz;
    80000906:	8552                	mv	a0,s4
    80000908:	a809                	j	8000091a <uvmalloc+0x74>
      uvmdealloc(pagetable, a, oldsz);
    8000090a:	864e                	mv	a2,s3
    8000090c:	85ca                	mv	a1,s2
    8000090e:	8556                	mv	a0,s5
    80000910:	00000097          	auipc	ra,0x0
    80000914:	f4e080e7          	jalr	-178(ra) # 8000085e <uvmdealloc>
      return 0;
    80000918:	4501                	li	a0,0
}
    8000091a:	70e2                	ld	ra,56(sp)
    8000091c:	7442                	ld	s0,48(sp)
    8000091e:	74a2                	ld	s1,40(sp)
    80000920:	7902                	ld	s2,32(sp)
    80000922:	69e2                	ld	s3,24(sp)
    80000924:	6a42                	ld	s4,16(sp)
    80000926:	6aa2                	ld	s5,8(sp)
    80000928:	6121                	addi	sp,sp,64
    8000092a:	8082                	ret
      kfree(mem);
    8000092c:	8526                	mv	a0,s1
    8000092e:	fffff097          	auipc	ra,0xfffff
    80000932:	6ee080e7          	jalr	1774(ra) # 8000001c <kfree>
      uvmdealloc(pagetable, a, oldsz);
    80000936:	864e                	mv	a2,s3
    80000938:	85ca                	mv	a1,s2
    8000093a:	8556                	mv	a0,s5
    8000093c:	00000097          	auipc	ra,0x0
    80000940:	f22080e7          	jalr	-222(ra) # 8000085e <uvmdealloc>
      return 0;
    80000944:	4501                	li	a0,0
    80000946:	bfd1                	j	8000091a <uvmalloc+0x74>
    return oldsz;
    80000948:	852e                	mv	a0,a1
}
    8000094a:	8082                	ret
  return newsz;
    8000094c:	8532                	mv	a0,a2
    8000094e:	b7f1                	j	8000091a <uvmalloc+0x74>

0000000080000950 <freewalk>:

// Recursively free page-table pages.
// All leaf mappings must already have been removed.
void
freewalk(pagetable_t pagetable)
{
    80000950:	7179                	addi	sp,sp,-48
    80000952:	f406                	sd	ra,40(sp)
    80000954:	f022                	sd	s0,32(sp)
    80000956:	ec26                	sd	s1,24(sp)
    80000958:	e84a                	sd	s2,16(sp)
    8000095a:	e44e                	sd	s3,8(sp)
    8000095c:	e052                	sd	s4,0(sp)
    8000095e:	1800                	addi	s0,sp,48
    80000960:	8a2a                	mv	s4,a0
  // there are 2^9 = 512 PTEs in a page table.
  for(int i = 0; i < 512; i++){
    80000962:	84aa                	mv	s1,a0
    80000964:	6905                	lui	s2,0x1
    80000966:	992a                	add	s2,s2,a0
    pte_t pte = pagetable[i];
    if((pte & PTE_V) && (pte & (PTE_R|PTE_W|PTE_X)) == 0){
    80000968:	4985                	li	s3,1
    8000096a:	a829                	j	80000984 <freewalk+0x34>
      // this PTE points to a lower-level page table.
      uint64 child = PTE2PA(pte);
    8000096c:	83a9                	srli	a5,a5,0xa
      freewalk((pagetable_t)child);
    8000096e:	00c79513          	slli	a0,a5,0xc
    80000972:	00000097          	auipc	ra,0x0
    80000976:	fde080e7          	jalr	-34(ra) # 80000950 <freewalk>
      pagetable[i] = 0;
    8000097a:	0004b023          	sd	zero,0(s1)
  for(int i = 0; i < 512; i++){
    8000097e:	04a1                	addi	s1,s1,8
    80000980:	03248163          	beq	s1,s2,800009a2 <freewalk+0x52>
    pte_t pte = pagetable[i];
    80000984:	609c                	ld	a5,0(s1)
    if((pte & PTE_V) && (pte & (PTE_R|PTE_W|PTE_X)) == 0){
    80000986:	00f7f713          	andi	a4,a5,15
    8000098a:	ff3701e3          	beq	a4,s3,8000096c <freewalk+0x1c>
    } else if(pte & PTE_V){
    8000098e:	8b85                	andi	a5,a5,1
    80000990:	d7fd                	beqz	a5,8000097e <freewalk+0x2e>
      panic("freewalk: leaf");
    80000992:	00007517          	auipc	a0,0x7
    80000996:	74e50513          	addi	a0,a0,1870 # 800080e0 <etext+0xe0>
    8000099a:	00005097          	auipc	ra,0x5
    8000099e:	5b6080e7          	jalr	1462(ra) # 80005f50 <panic>
    }
  }
  kfree((void*)pagetable);
    800009a2:	8552                	mv	a0,s4
    800009a4:	fffff097          	auipc	ra,0xfffff
    800009a8:	678080e7          	jalr	1656(ra) # 8000001c <kfree>
}
    800009ac:	70a2                	ld	ra,40(sp)
    800009ae:	7402                	ld	s0,32(sp)
    800009b0:	64e2                	ld	s1,24(sp)
    800009b2:	6942                	ld	s2,16(sp)
    800009b4:	69a2                	ld	s3,8(sp)
    800009b6:	6a02                	ld	s4,0(sp)
    800009b8:	6145                	addi	sp,sp,48
    800009ba:	8082                	ret

00000000800009bc <uvmfree>:

// Free user memory pages,
// then free page-table pages.
void
uvmfree(pagetable_t pagetable, uint64 sz)
{
    800009bc:	1101                	addi	sp,sp,-32
    800009be:	ec06                	sd	ra,24(sp)
    800009c0:	e822                	sd	s0,16(sp)
    800009c2:	e426                	sd	s1,8(sp)
    800009c4:	1000                	addi	s0,sp,32
    800009c6:	84aa                	mv	s1,a0
  if(sz > 0)
    800009c8:	e999                	bnez	a1,800009de <uvmfree+0x22>
    uvmunmap(pagetable, 0, PGROUNDUP(sz)/PGSIZE, 1);
  freewalk(pagetable);
    800009ca:	8526                	mv	a0,s1
    800009cc:	00000097          	auipc	ra,0x0
    800009d0:	f84080e7          	jalr	-124(ra) # 80000950 <freewalk>
}
    800009d4:	60e2                	ld	ra,24(sp)
    800009d6:	6442                	ld	s0,16(sp)
    800009d8:	64a2                	ld	s1,8(sp)
    800009da:	6105                	addi	sp,sp,32
    800009dc:	8082                	ret
    uvmunmap(pagetable, 0, PGROUNDUP(sz)/PGSIZE, 1);
    800009de:	6785                	lui	a5,0x1
    800009e0:	17fd                	addi	a5,a5,-1 # fff <_entry-0x7ffff001>
    800009e2:	95be                	add	a1,a1,a5
    800009e4:	4685                	li	a3,1
    800009e6:	00c5d613          	srli	a2,a1,0xc
    800009ea:	4581                	li	a1,0
    800009ec:	00000097          	auipc	ra,0x0
    800009f0:	d1c080e7          	jalr	-740(ra) # 80000708 <uvmunmap>
    800009f4:	bfd9                	j	800009ca <uvmfree+0xe>

00000000800009f6 <uvmcopy>:
  pte_t *pte;
  uint64 pa, i;
  uint flags;
  char *mem;

  for(i = 0; i < sz; i += PGSIZE){
    800009f6:	c679                	beqz	a2,80000ac4 <uvmcopy+0xce>
{
    800009f8:	715d                	addi	sp,sp,-80
    800009fa:	e486                	sd	ra,72(sp)
    800009fc:	e0a2                	sd	s0,64(sp)
    800009fe:	fc26                	sd	s1,56(sp)
    80000a00:	f84a                	sd	s2,48(sp)
    80000a02:	f44e                	sd	s3,40(sp)
    80000a04:	f052                	sd	s4,32(sp)
    80000a06:	ec56                	sd	s5,24(sp)
    80000a08:	e85a                	sd	s6,16(sp)
    80000a0a:	e45e                	sd	s7,8(sp)
    80000a0c:	0880                	addi	s0,sp,80
    80000a0e:	8b2a                	mv	s6,a0
    80000a10:	8aae                	mv	s5,a1
    80000a12:	8a32                	mv	s4,a2
  for(i = 0; i < sz; i += PGSIZE){
    80000a14:	4981                	li	s3,0
    if((pte = walk(old, i, 0)) == 0)
    80000a16:	4601                	li	a2,0
    80000a18:	85ce                	mv	a1,s3
    80000a1a:	855a                	mv	a0,s6
    80000a1c:	00000097          	auipc	ra,0x0
    80000a20:	a3e080e7          	jalr	-1474(ra) # 8000045a <walk>
    80000a24:	c531                	beqz	a0,80000a70 <uvmcopy+0x7a>
      panic("uvmcopy: pte should exist");
    if((*pte & PTE_V) == 0)
    80000a26:	6118                	ld	a4,0(a0)
    80000a28:	00177793          	andi	a5,a4,1
    80000a2c:	cbb1                	beqz	a5,80000a80 <uvmcopy+0x8a>
      panic("uvmcopy: page not present");
    pa = PTE2PA(*pte);
    80000a2e:	00a75593          	srli	a1,a4,0xa
    80000a32:	00c59b93          	slli	s7,a1,0xc
    flags = PTE_FLAGS(*pte);
    80000a36:	3ff77493          	andi	s1,a4,1023
    if((mem = kalloc()) == 0)
    80000a3a:	fffff097          	auipc	ra,0xfffff
    80000a3e:	6e0080e7          	jalr	1760(ra) # 8000011a <kalloc>
    80000a42:	892a                	mv	s2,a0
    80000a44:	c939                	beqz	a0,80000a9a <uvmcopy+0xa4>
      goto err;
    memmove(mem, (char*)pa, PGSIZE);
    80000a46:	6605                	lui	a2,0x1
    80000a48:	85de                	mv	a1,s7
    80000a4a:	fffff097          	auipc	ra,0xfffff
    80000a4e:	78c080e7          	jalr	1932(ra) # 800001d6 <memmove>
    if(mappages(new, i, PGSIZE, (uint64)mem, flags) != 0){
    80000a52:	8726                	mv	a4,s1
    80000a54:	86ca                	mv	a3,s2
    80000a56:	6605                	lui	a2,0x1
    80000a58:	85ce                	mv	a1,s3
    80000a5a:	8556                	mv	a0,s5
    80000a5c:	00000097          	auipc	ra,0x0
    80000a60:	ae6080e7          	jalr	-1306(ra) # 80000542 <mappages>
    80000a64:	e515                	bnez	a0,80000a90 <uvmcopy+0x9a>
  for(i = 0; i < sz; i += PGSIZE){
    80000a66:	6785                	lui	a5,0x1
    80000a68:	99be                	add	s3,s3,a5
    80000a6a:	fb49e6e3          	bltu	s3,s4,80000a16 <uvmcopy+0x20>
    80000a6e:	a081                	j	80000aae <uvmcopy+0xb8>
      panic("uvmcopy: pte should exist");
    80000a70:	00007517          	auipc	a0,0x7
    80000a74:	68050513          	addi	a0,a0,1664 # 800080f0 <etext+0xf0>
    80000a78:	00005097          	auipc	ra,0x5
    80000a7c:	4d8080e7          	jalr	1240(ra) # 80005f50 <panic>
      panic("uvmcopy: page not present");
    80000a80:	00007517          	auipc	a0,0x7
    80000a84:	69050513          	addi	a0,a0,1680 # 80008110 <etext+0x110>
    80000a88:	00005097          	auipc	ra,0x5
    80000a8c:	4c8080e7          	jalr	1224(ra) # 80005f50 <panic>
      kfree(mem);
    80000a90:	854a                	mv	a0,s2
    80000a92:	fffff097          	auipc	ra,0xfffff
    80000a96:	58a080e7          	jalr	1418(ra) # 8000001c <kfree>
    }
  }
  return 0;

 err:
  uvmunmap(new, 0, i / PGSIZE, 1);
    80000a9a:	4685                	li	a3,1
    80000a9c:	00c9d613          	srli	a2,s3,0xc
    80000aa0:	4581                	li	a1,0
    80000aa2:	8556                	mv	a0,s5
    80000aa4:	00000097          	auipc	ra,0x0
    80000aa8:	c64080e7          	jalr	-924(ra) # 80000708 <uvmunmap>
  return -1;
    80000aac:	557d                	li	a0,-1
}
    80000aae:	60a6                	ld	ra,72(sp)
    80000ab0:	6406                	ld	s0,64(sp)
    80000ab2:	74e2                	ld	s1,56(sp)
    80000ab4:	7942                	ld	s2,48(sp)
    80000ab6:	79a2                	ld	s3,40(sp)
    80000ab8:	7a02                	ld	s4,32(sp)
    80000aba:	6ae2                	ld	s5,24(sp)
    80000abc:	6b42                	ld	s6,16(sp)
    80000abe:	6ba2                	ld	s7,8(sp)
    80000ac0:	6161                	addi	sp,sp,80
    80000ac2:	8082                	ret
  return 0;
    80000ac4:	4501                	li	a0,0
}
    80000ac6:	8082                	ret

0000000080000ac8 <uvmclear>:

// mark a PTE invalid for user access.
// used by exec for the user stack guard page.
void
uvmclear(pagetable_t pagetable, uint64 va)
{
    80000ac8:	1141                	addi	sp,sp,-16
    80000aca:	e406                	sd	ra,8(sp)
    80000acc:	e022                	sd	s0,0(sp)
    80000ace:	0800                	addi	s0,sp,16
  pte_t *pte;
  
  pte = walk(pagetable, va, 0);
    80000ad0:	4601                	li	a2,0
    80000ad2:	00000097          	auipc	ra,0x0
    80000ad6:	988080e7          	jalr	-1656(ra) # 8000045a <walk>
  if(pte == 0)
    80000ada:	c901                	beqz	a0,80000aea <uvmclear+0x22>
    panic("uvmclear");
  *pte &= ~PTE_U;
    80000adc:	611c                	ld	a5,0(a0)
    80000ade:	9bbd                	andi	a5,a5,-17
    80000ae0:	e11c                	sd	a5,0(a0)
}
    80000ae2:	60a2                	ld	ra,8(sp)
    80000ae4:	6402                	ld	s0,0(sp)
    80000ae6:	0141                	addi	sp,sp,16
    80000ae8:	8082                	ret
    panic("uvmclear");
    80000aea:	00007517          	auipc	a0,0x7
    80000aee:	64650513          	addi	a0,a0,1606 # 80008130 <etext+0x130>
    80000af2:	00005097          	auipc	ra,0x5
    80000af6:	45e080e7          	jalr	1118(ra) # 80005f50 <panic>

0000000080000afa <copyout>:
int
copyout(pagetable_t pagetable, uint64 dstva, char *src, uint64 len)
{
  uint64 n, va0, pa0;

  while(len > 0){
    80000afa:	c6bd                	beqz	a3,80000b68 <copyout+0x6e>
{
    80000afc:	715d                	addi	sp,sp,-80
    80000afe:	e486                	sd	ra,72(sp)
    80000b00:	e0a2                	sd	s0,64(sp)
    80000b02:	fc26                	sd	s1,56(sp)
    80000b04:	f84a                	sd	s2,48(sp)
    80000b06:	f44e                	sd	s3,40(sp)
    80000b08:	f052                	sd	s4,32(sp)
    80000b0a:	ec56                	sd	s5,24(sp)
    80000b0c:	e85a                	sd	s6,16(sp)
    80000b0e:	e45e                	sd	s7,8(sp)
    80000b10:	e062                	sd	s8,0(sp)
    80000b12:	0880                	addi	s0,sp,80
    80000b14:	8b2a                	mv	s6,a0
    80000b16:	8c2e                	mv	s8,a1
    80000b18:	8a32                	mv	s4,a2
    80000b1a:	89b6                	mv	s3,a3
    va0 = PGROUNDDOWN(dstva);
    80000b1c:	7bfd                	lui	s7,0xfffff
    pa0 = walkaddr(pagetable, va0);
    if(pa0 == 0)
      return -1;
    n = PGSIZE - (dstva - va0);
    80000b1e:	6a85                	lui	s5,0x1
    80000b20:	a015                	j	80000b44 <copyout+0x4a>
    if(n > len)
      n = len;
    memmove((void *)(pa0 + (dstva - va0)), src, n);
    80000b22:	9562                	add	a0,a0,s8
    80000b24:	0004861b          	sext.w	a2,s1
    80000b28:	85d2                	mv	a1,s4
    80000b2a:	41250533          	sub	a0,a0,s2
    80000b2e:	fffff097          	auipc	ra,0xfffff
    80000b32:	6a8080e7          	jalr	1704(ra) # 800001d6 <memmove>

    len -= n;
    80000b36:	409989b3          	sub	s3,s3,s1
    src += n;
    80000b3a:	9a26                	add	s4,s4,s1
    dstva = va0 + PGSIZE;
    80000b3c:	01590c33          	add	s8,s2,s5
  while(len > 0){
    80000b40:	02098263          	beqz	s3,80000b64 <copyout+0x6a>
    va0 = PGROUNDDOWN(dstva);
    80000b44:	017c7933          	and	s2,s8,s7
    pa0 = walkaddr(pagetable, va0);
    80000b48:	85ca                	mv	a1,s2
    80000b4a:	855a                	mv	a0,s6
    80000b4c:	00000097          	auipc	ra,0x0
    80000b50:	9b4080e7          	jalr	-1612(ra) # 80000500 <walkaddr>
    if(pa0 == 0)
    80000b54:	cd01                	beqz	a0,80000b6c <copyout+0x72>
    n = PGSIZE - (dstva - va0);
    80000b56:	418904b3          	sub	s1,s2,s8
    80000b5a:	94d6                	add	s1,s1,s5
    80000b5c:	fc99f3e3          	bgeu	s3,s1,80000b22 <copyout+0x28>
    80000b60:	84ce                	mv	s1,s3
    80000b62:	b7c1                	j	80000b22 <copyout+0x28>
  }
  return 0;
    80000b64:	4501                	li	a0,0
    80000b66:	a021                	j	80000b6e <copyout+0x74>
    80000b68:	4501                	li	a0,0
}
    80000b6a:	8082                	ret
      return -1;
    80000b6c:	557d                	li	a0,-1
}
    80000b6e:	60a6                	ld	ra,72(sp)
    80000b70:	6406                	ld	s0,64(sp)
    80000b72:	74e2                	ld	s1,56(sp)
    80000b74:	7942                	ld	s2,48(sp)
    80000b76:	79a2                	ld	s3,40(sp)
    80000b78:	7a02                	ld	s4,32(sp)
    80000b7a:	6ae2                	ld	s5,24(sp)
    80000b7c:	6b42                	ld	s6,16(sp)
    80000b7e:	6ba2                	ld	s7,8(sp)
    80000b80:	6c02                	ld	s8,0(sp)
    80000b82:	6161                	addi	sp,sp,80
    80000b84:	8082                	ret

0000000080000b86 <copyin>:
int
copyin(pagetable_t pagetable, char *dst, uint64 srcva, uint64 len)
{
  uint64 n, va0, pa0;

  while(len > 0){
    80000b86:	caa5                	beqz	a3,80000bf6 <copyin+0x70>
{
    80000b88:	715d                	addi	sp,sp,-80
    80000b8a:	e486                	sd	ra,72(sp)
    80000b8c:	e0a2                	sd	s0,64(sp)
    80000b8e:	fc26                	sd	s1,56(sp)
    80000b90:	f84a                	sd	s2,48(sp)
    80000b92:	f44e                	sd	s3,40(sp)
    80000b94:	f052                	sd	s4,32(sp)
    80000b96:	ec56                	sd	s5,24(sp)
    80000b98:	e85a                	sd	s6,16(sp)
    80000b9a:	e45e                	sd	s7,8(sp)
    80000b9c:	e062                	sd	s8,0(sp)
    80000b9e:	0880                	addi	s0,sp,80
    80000ba0:	8b2a                	mv	s6,a0
    80000ba2:	8a2e                	mv	s4,a1
    80000ba4:	8c32                	mv	s8,a2
    80000ba6:	89b6                	mv	s3,a3
    va0 = PGROUNDDOWN(srcva);
    80000ba8:	7bfd                	lui	s7,0xfffff
    pa0 = walkaddr(pagetable, va0);
    if(pa0 == 0)
      return -1;
    n = PGSIZE - (srcva - va0);
    80000baa:	6a85                	lui	s5,0x1
    80000bac:	a01d                	j	80000bd2 <copyin+0x4c>
    if(n > len)
      n = len;
    memmove(dst, (void *)(pa0 + (srcva - va0)), n);
    80000bae:	018505b3          	add	a1,a0,s8
    80000bb2:	0004861b          	sext.w	a2,s1
    80000bb6:	412585b3          	sub	a1,a1,s2
    80000bba:	8552                	mv	a0,s4
    80000bbc:	fffff097          	auipc	ra,0xfffff
    80000bc0:	61a080e7          	jalr	1562(ra) # 800001d6 <memmove>

    len -= n;
    80000bc4:	409989b3          	sub	s3,s3,s1
    dst += n;
    80000bc8:	9a26                	add	s4,s4,s1
    srcva = va0 + PGSIZE;
    80000bca:	01590c33          	add	s8,s2,s5
  while(len > 0){
    80000bce:	02098263          	beqz	s3,80000bf2 <copyin+0x6c>
    va0 = PGROUNDDOWN(srcva);
    80000bd2:	017c7933          	and	s2,s8,s7
    pa0 = walkaddr(pagetable, va0);
    80000bd6:	85ca                	mv	a1,s2
    80000bd8:	855a                	mv	a0,s6
    80000bda:	00000097          	auipc	ra,0x0
    80000bde:	926080e7          	jalr	-1754(ra) # 80000500 <walkaddr>
    if(pa0 == 0)
    80000be2:	cd01                	beqz	a0,80000bfa <copyin+0x74>
    n = PGSIZE - (srcva - va0);
    80000be4:	418904b3          	sub	s1,s2,s8
    80000be8:	94d6                	add	s1,s1,s5
    80000bea:	fc99f2e3          	bgeu	s3,s1,80000bae <copyin+0x28>
    80000bee:	84ce                	mv	s1,s3
    80000bf0:	bf7d                	j	80000bae <copyin+0x28>
  }
  return 0;
    80000bf2:	4501                	li	a0,0
    80000bf4:	a021                	j	80000bfc <copyin+0x76>
    80000bf6:	4501                	li	a0,0
}
    80000bf8:	8082                	ret
      return -1;
    80000bfa:	557d                	li	a0,-1
}
    80000bfc:	60a6                	ld	ra,72(sp)
    80000bfe:	6406                	ld	s0,64(sp)
    80000c00:	74e2                	ld	s1,56(sp)
    80000c02:	7942                	ld	s2,48(sp)
    80000c04:	79a2                	ld	s3,40(sp)
    80000c06:	7a02                	ld	s4,32(sp)
    80000c08:	6ae2                	ld	s5,24(sp)
    80000c0a:	6b42                	ld	s6,16(sp)
    80000c0c:	6ba2                	ld	s7,8(sp)
    80000c0e:	6c02                	ld	s8,0(sp)
    80000c10:	6161                	addi	sp,sp,80
    80000c12:	8082                	ret

0000000080000c14 <copyinstr>:
copyinstr(pagetable_t pagetable, char *dst, uint64 srcva, uint64 max)
{
  uint64 n, va0, pa0;
  int got_null = 0;

  while(got_null == 0 && max > 0){
    80000c14:	c2dd                	beqz	a3,80000cba <copyinstr+0xa6>
{
    80000c16:	715d                	addi	sp,sp,-80
    80000c18:	e486                	sd	ra,72(sp)
    80000c1a:	e0a2                	sd	s0,64(sp)
    80000c1c:	fc26                	sd	s1,56(sp)
    80000c1e:	f84a                	sd	s2,48(sp)
    80000c20:	f44e                	sd	s3,40(sp)
    80000c22:	f052                	sd	s4,32(sp)
    80000c24:	ec56                	sd	s5,24(sp)
    80000c26:	e85a                	sd	s6,16(sp)
    80000c28:	e45e                	sd	s7,8(sp)
    80000c2a:	0880                	addi	s0,sp,80
    80000c2c:	8a2a                	mv	s4,a0
    80000c2e:	8b2e                	mv	s6,a1
    80000c30:	8bb2                	mv	s7,a2
    80000c32:	84b6                	mv	s1,a3
    va0 = PGROUNDDOWN(srcva);
    80000c34:	7afd                	lui	s5,0xfffff
    pa0 = walkaddr(pagetable, va0);
    if(pa0 == 0)
      return -1;
    n = PGSIZE - (srcva - va0);
    80000c36:	6985                	lui	s3,0x1
    80000c38:	a02d                	j	80000c62 <copyinstr+0x4e>
      n = max;

    char *p = (char *) (pa0 + (srcva - va0));
    while(n > 0){
      if(*p == '\0'){
        *dst = '\0';
    80000c3a:	00078023          	sb	zero,0(a5) # 1000 <_entry-0x7ffff000>
    80000c3e:	4785                	li	a5,1
      dst++;
    }

    srcva = va0 + PGSIZE;
  }
  if(got_null){
    80000c40:	37fd                	addiw	a5,a5,-1
    80000c42:	0007851b          	sext.w	a0,a5
    return 0;
  } else {
    return -1;
  }
}
    80000c46:	60a6                	ld	ra,72(sp)
    80000c48:	6406                	ld	s0,64(sp)
    80000c4a:	74e2                	ld	s1,56(sp)
    80000c4c:	7942                	ld	s2,48(sp)
    80000c4e:	79a2                	ld	s3,40(sp)
    80000c50:	7a02                	ld	s4,32(sp)
    80000c52:	6ae2                	ld	s5,24(sp)
    80000c54:	6b42                	ld	s6,16(sp)
    80000c56:	6ba2                	ld	s7,8(sp)
    80000c58:	6161                	addi	sp,sp,80
    80000c5a:	8082                	ret
    srcva = va0 + PGSIZE;
    80000c5c:	01390bb3          	add	s7,s2,s3
  while(got_null == 0 && max > 0){
    80000c60:	c8a9                	beqz	s1,80000cb2 <copyinstr+0x9e>
    va0 = PGROUNDDOWN(srcva);
    80000c62:	015bf933          	and	s2,s7,s5
    pa0 = walkaddr(pagetable, va0);
    80000c66:	85ca                	mv	a1,s2
    80000c68:	8552                	mv	a0,s4
    80000c6a:	00000097          	auipc	ra,0x0
    80000c6e:	896080e7          	jalr	-1898(ra) # 80000500 <walkaddr>
    if(pa0 == 0)
    80000c72:	c131                	beqz	a0,80000cb6 <copyinstr+0xa2>
    n = PGSIZE - (srcva - va0);
    80000c74:	417906b3          	sub	a3,s2,s7
    80000c78:	96ce                	add	a3,a3,s3
    80000c7a:	00d4f363          	bgeu	s1,a3,80000c80 <copyinstr+0x6c>
    80000c7e:	86a6                	mv	a3,s1
    char *p = (char *) (pa0 + (srcva - va0));
    80000c80:	955e                	add	a0,a0,s7
    80000c82:	41250533          	sub	a0,a0,s2
    while(n > 0){
    80000c86:	daf9                	beqz	a3,80000c5c <copyinstr+0x48>
    80000c88:	87da                	mv	a5,s6
      if(*p == '\0'){
    80000c8a:	41650633          	sub	a2,a0,s6
    80000c8e:	fff48593          	addi	a1,s1,-1
    80000c92:	95da                	add	a1,a1,s6
    while(n > 0){
    80000c94:	96da                	add	a3,a3,s6
      if(*p == '\0'){
    80000c96:	00f60733          	add	a4,a2,a5
    80000c9a:	00074703          	lbu	a4,0(a4) # fffffffffffff000 <end+0xffffffff7ffcedc0>
    80000c9e:	df51                	beqz	a4,80000c3a <copyinstr+0x26>
        *dst = *p;
    80000ca0:	00e78023          	sb	a4,0(a5)
      --max;
    80000ca4:	40f584b3          	sub	s1,a1,a5
      dst++;
    80000ca8:	0785                	addi	a5,a5,1
    while(n > 0){
    80000caa:	fed796e3          	bne	a5,a3,80000c96 <copyinstr+0x82>
      dst++;
    80000cae:	8b3e                	mv	s6,a5
    80000cb0:	b775                	j	80000c5c <copyinstr+0x48>
    80000cb2:	4781                	li	a5,0
    80000cb4:	b771                	j	80000c40 <copyinstr+0x2c>
      return -1;
    80000cb6:	557d                	li	a0,-1
    80000cb8:	b779                	j	80000c46 <copyinstr+0x32>
  int got_null = 0;
    80000cba:	4781                	li	a5,0
  if(got_null){
    80000cbc:	37fd                	addiw	a5,a5,-1
    80000cbe:	0007851b          	sext.w	a0,a5
}
    80000cc2:	8082                	ret

0000000080000cc4 <proc_mapstacks>:

// Allocate a page for each process's kernel stack.
// Map it high in memory, followed by an invalid
// guard page.
void
proc_mapstacks(pagetable_t kpgtbl) {
    80000cc4:	7139                	addi	sp,sp,-64
    80000cc6:	fc06                	sd	ra,56(sp)
    80000cc8:	f822                	sd	s0,48(sp)
    80000cca:	f426                	sd	s1,40(sp)
    80000ccc:	f04a                	sd	s2,32(sp)
    80000cce:	ec4e                	sd	s3,24(sp)
    80000cd0:	e852                	sd	s4,16(sp)
    80000cd2:	e456                	sd	s5,8(sp)
    80000cd4:	e05a                	sd	s6,0(sp)
    80000cd6:	0080                	addi	s0,sp,64
    80000cd8:	89aa                	mv	s3,a0
  struct proc *p;
  
  for(p = proc; p < &proc[NPROC]; p++) {
    80000cda:	00008497          	auipc	s1,0x8
    80000cde:	7a648493          	addi	s1,s1,1958 # 80009480 <proc>
    char *pa = kalloc();
    if(pa == 0)
      panic("kalloc");
    uint64 va = KSTACK((int) (p - proc));
    80000ce2:	8b26                	mv	s6,s1
    80000ce4:	00007a97          	auipc	s5,0x7
    80000ce8:	31ca8a93          	addi	s5,s5,796 # 80008000 <etext>
    80000cec:	04000937          	lui	s2,0x4000
    80000cf0:	197d                	addi	s2,s2,-1 # 3ffffff <_entry-0x7c000001>
    80000cf2:	0932                	slli	s2,s2,0xc
  for(p = proc; p < &proc[NPROC]; p++) {
    80000cf4:	00018a17          	auipc	s4,0x18
    80000cf8:	38ca0a13          	addi	s4,s4,908 # 80019080 <tickslock>
    char *pa = kalloc();
    80000cfc:	fffff097          	auipc	ra,0xfffff
    80000d00:	41e080e7          	jalr	1054(ra) # 8000011a <kalloc>
    80000d04:	862a                	mv	a2,a0
    if(pa == 0)
    80000d06:	c131                	beqz	a0,80000d4a <proc_mapstacks+0x86>
    uint64 va = KSTACK((int) (p - proc));
    80000d08:	416485b3          	sub	a1,s1,s6
    80000d0c:	8591                	srai	a1,a1,0x4
    80000d0e:	000ab783          	ld	a5,0(s5)
    80000d12:	02f585b3          	mul	a1,a1,a5
    80000d16:	2585                	addiw	a1,a1,1
    80000d18:	00d5959b          	slliw	a1,a1,0xd
    kvmmap(kpgtbl, va, (uint64)pa, PGSIZE, PTE_R | PTE_W);
    80000d1c:	4719                	li	a4,6
    80000d1e:	6685                	lui	a3,0x1
    80000d20:	40b905b3          	sub	a1,s2,a1
    80000d24:	854e                	mv	a0,s3
    80000d26:	00000097          	auipc	ra,0x0
    80000d2a:	8bc080e7          	jalr	-1860(ra) # 800005e2 <kvmmap>
  for(p = proc; p < &proc[NPROC]; p++) {
    80000d2e:	3f048493          	addi	s1,s1,1008
    80000d32:	fd4495e3          	bne	s1,s4,80000cfc <proc_mapstacks+0x38>
  }
}
    80000d36:	70e2                	ld	ra,56(sp)
    80000d38:	7442                	ld	s0,48(sp)
    80000d3a:	74a2                	ld	s1,40(sp)
    80000d3c:	7902                	ld	s2,32(sp)
    80000d3e:	69e2                	ld	s3,24(sp)
    80000d40:	6a42                	ld	s4,16(sp)
    80000d42:	6aa2                	ld	s5,8(sp)
    80000d44:	6b02                	ld	s6,0(sp)
    80000d46:	6121                	addi	sp,sp,64
    80000d48:	8082                	ret
      panic("kalloc");
    80000d4a:	00007517          	auipc	a0,0x7
    80000d4e:	3f650513          	addi	a0,a0,1014 # 80008140 <etext+0x140>
    80000d52:	00005097          	auipc	ra,0x5
    80000d56:	1fe080e7          	jalr	510(ra) # 80005f50 <panic>

0000000080000d5a <procinit>:

// initialize the proc table at boot time.
void
procinit(void)
{
    80000d5a:	715d                	addi	sp,sp,-80
    80000d5c:	e486                	sd	ra,72(sp)
    80000d5e:	e0a2                	sd	s0,64(sp)
    80000d60:	fc26                	sd	s1,56(sp)
    80000d62:	f84a                	sd	s2,48(sp)
    80000d64:	f44e                	sd	s3,40(sp)
    80000d66:	f052                	sd	s4,32(sp)
    80000d68:	ec56                	sd	s5,24(sp)
    80000d6a:	e85a                	sd	s6,16(sp)
    80000d6c:	e45e                	sd	s7,8(sp)
    80000d6e:	e062                	sd	s8,0(sp)
    80000d70:	0880                	addi	s0,sp,80
  struct proc *p;
  
  initlock(&pid_lock, "nextpid");
    80000d72:	00007597          	auipc	a1,0x7
    80000d76:	3d658593          	addi	a1,a1,982 # 80008148 <etext+0x148>
    80000d7a:	00008517          	auipc	a0,0x8
    80000d7e:	2d650513          	addi	a0,a0,726 # 80009050 <pid_lock>
    80000d82:	00005097          	auipc	ra,0x5
    80000d86:	676080e7          	jalr	1654(ra) # 800063f8 <initlock>
  initlock(&wait_lock, "wait_lock");
    80000d8a:	00007597          	auipc	a1,0x7
    80000d8e:	3c658593          	addi	a1,a1,966 # 80008150 <etext+0x150>
    80000d92:	00008517          	auipc	a0,0x8
    80000d96:	2d650513          	addi	a0,a0,726 # 80009068 <wait_lock>
    80000d9a:	00005097          	auipc	ra,0x5
    80000d9e:	65e080e7          	jalr	1630(ra) # 800063f8 <initlock>
  for(p = proc; p < &proc[NPROC]; p++) {
    80000da2:	00009497          	auipc	s1,0x9
    80000da6:	ace48493          	addi	s1,s1,-1330 # 80009870 <proc+0x3f0>
    80000daa:	00008917          	auipc	s2,0x8
    80000dae:	6d690913          	addi	s2,s2,1750 # 80009480 <proc>
      initlock(&p->lock, "proc");
    80000db2:	00007c17          	auipc	s8,0x7
    80000db6:	3aec0c13          	addi	s8,s8,942 # 80008160 <etext+0x160>
      p->kstack = KSTACK((int) (p - proc));
    80000dba:	8bca                	mv	s7,s2
    80000dbc:	00007b17          	auipc	s6,0x7
    80000dc0:	244b0b13          	addi	s6,s6,580 # 80008000 <etext>
    80000dc4:	04000a37          	lui	s4,0x4000
    80000dc8:	1a7d                	addi	s4,s4,-1 # 3ffffff <_entry-0x7c000001>
    80000dca:	0a32                	slli	s4,s4,0xc
      p->VMA_top = TRAPFRAME;
    80000dcc:	020009b7          	lui	s3,0x2000
    80000dd0:	19fd                	addi	s3,s3,-1 # 1ffffff <_entry-0x7e000001>
    80000dd2:	09b6                	slli	s3,s3,0xd
  for(p = proc; p < &proc[NPROC]; p++) {
    80000dd4:	00018a97          	auipc	s5,0x18
    80000dd8:	2aca8a93          	addi	s5,s5,684 # 80019080 <tickslock>
    80000ddc:	a039                	j	80000dea <procinit+0x90>
    80000dde:	3f090913          	addi	s2,s2,1008
    80000de2:	3f048493          	addi	s1,s1,1008
    80000de6:	05590163          	beq	s2,s5,80000e28 <procinit+0xce>
      initlock(&p->lock, "proc");
    80000dea:	85e2                	mv	a1,s8
    80000dec:	854a                	mv	a0,s2
    80000dee:	00005097          	auipc	ra,0x5
    80000df2:	60a080e7          	jalr	1546(ra) # 800063f8 <initlock>
      p->kstack = KSTACK((int) (p - proc));
    80000df6:	417907b3          	sub	a5,s2,s7
    80000dfa:	8791                	srai	a5,a5,0x4
    80000dfc:	000b3703          	ld	a4,0(s6)
    80000e00:	02e787b3          	mul	a5,a5,a4
    80000e04:	2785                	addiw	a5,a5,1
    80000e06:	00d7979b          	slliw	a5,a5,0xd
    80000e0a:	40fa07b3          	sub	a5,s4,a5
    80000e0e:	04f93023          	sd	a5,64(s2)
      p->VMA_top = TRAPFRAME;
    80000e12:	17393423          	sd	s3,360(s2)
      for (int i = 0; i < VMA_SIZE; i++) {
    80000e16:	17090793          	addi	a5,s2,368
        p->VMAs[i].valid = 0;
    80000e1a:	0007a023          	sw	zero,0(a5)
      for (int i = 0; i < VMA_SIZE; i++) {
    80000e1e:	02878793          	addi	a5,a5,40
    80000e22:	fe979ce3          	bne	a5,s1,80000e1a <procinit+0xc0>
    80000e26:	bf65                	j	80000dde <procinit+0x84>
      }
  }
}
    80000e28:	60a6                	ld	ra,72(sp)
    80000e2a:	6406                	ld	s0,64(sp)
    80000e2c:	74e2                	ld	s1,56(sp)
    80000e2e:	7942                	ld	s2,48(sp)
    80000e30:	79a2                	ld	s3,40(sp)
    80000e32:	7a02                	ld	s4,32(sp)
    80000e34:	6ae2                	ld	s5,24(sp)
    80000e36:	6b42                	ld	s6,16(sp)
    80000e38:	6ba2                	ld	s7,8(sp)
    80000e3a:	6c02                	ld	s8,0(sp)
    80000e3c:	6161                	addi	sp,sp,80
    80000e3e:	8082                	ret

0000000080000e40 <cpuid>:
// Must be called with interrupts disabled,
// to prevent race with process being moved
// to a different CPU.
int
cpuid()
{
    80000e40:	1141                	addi	sp,sp,-16
    80000e42:	e422                	sd	s0,8(sp)
    80000e44:	0800                	addi	s0,sp,16
  asm volatile("mv %0, tp" : "=r" (x) );
    80000e46:	8512                	mv	a0,tp
  int id = r_tp();
  return id;
}
    80000e48:	2501                	sext.w	a0,a0
    80000e4a:	6422                	ld	s0,8(sp)
    80000e4c:	0141                	addi	sp,sp,16
    80000e4e:	8082                	ret

0000000080000e50 <mycpu>:

// Return this CPU's cpu struct.
// Interrupts must be disabled.
struct cpu*
mycpu(void) {
    80000e50:	1141                	addi	sp,sp,-16
    80000e52:	e422                	sd	s0,8(sp)
    80000e54:	0800                	addi	s0,sp,16
    80000e56:	8792                	mv	a5,tp
  int id = cpuid();
  struct cpu *c = &cpus[id];
    80000e58:	2781                	sext.w	a5,a5
    80000e5a:	079e                	slli	a5,a5,0x7
  return c;
}
    80000e5c:	00008517          	auipc	a0,0x8
    80000e60:	22450513          	addi	a0,a0,548 # 80009080 <cpus>
    80000e64:	953e                	add	a0,a0,a5
    80000e66:	6422                	ld	s0,8(sp)
    80000e68:	0141                	addi	sp,sp,16
    80000e6a:	8082                	ret

0000000080000e6c <myproc>:

// Return the current struct proc *, or zero if none.
struct proc*
myproc(void) {
    80000e6c:	1101                	addi	sp,sp,-32
    80000e6e:	ec06                	sd	ra,24(sp)
    80000e70:	e822                	sd	s0,16(sp)
    80000e72:	e426                	sd	s1,8(sp)
    80000e74:	1000                	addi	s0,sp,32
  push_off();
    80000e76:	00005097          	auipc	ra,0x5
    80000e7a:	5c6080e7          	jalr	1478(ra) # 8000643c <push_off>
    80000e7e:	8792                	mv	a5,tp
  struct cpu *c = mycpu();
  struct proc *p = c->proc;
    80000e80:	2781                	sext.w	a5,a5
    80000e82:	079e                	slli	a5,a5,0x7
    80000e84:	00008717          	auipc	a4,0x8
    80000e88:	1cc70713          	addi	a4,a4,460 # 80009050 <pid_lock>
    80000e8c:	97ba                	add	a5,a5,a4
    80000e8e:	7b84                	ld	s1,48(a5)
  pop_off();
    80000e90:	00005097          	auipc	ra,0x5
    80000e94:	64c080e7          	jalr	1612(ra) # 800064dc <pop_off>
  return p;
}
    80000e98:	8526                	mv	a0,s1
    80000e9a:	60e2                	ld	ra,24(sp)
    80000e9c:	6442                	ld	s0,16(sp)
    80000e9e:	64a2                	ld	s1,8(sp)
    80000ea0:	6105                	addi	sp,sp,32
    80000ea2:	8082                	ret

0000000080000ea4 <forkret>:

// A fork child's very first scheduling by scheduler()
// will swtch to forkret.
void
forkret(void)
{
    80000ea4:	1141                	addi	sp,sp,-16
    80000ea6:	e406                	sd	ra,8(sp)
    80000ea8:	e022                	sd	s0,0(sp)
    80000eaa:	0800                	addi	s0,sp,16
  static int first = 1;

  // Still holding p->lock from scheduler.
  release(&myproc()->lock);
    80000eac:	00000097          	auipc	ra,0x0
    80000eb0:	fc0080e7          	jalr	-64(ra) # 80000e6c <myproc>
    80000eb4:	00005097          	auipc	ra,0x5
    80000eb8:	688080e7          	jalr	1672(ra) # 8000653c <release>

  if (first) {
    80000ebc:	00008797          	auipc	a5,0x8
    80000ec0:	9747a783          	lw	a5,-1676(a5) # 80008830 <first.1>
    80000ec4:	eb89                	bnez	a5,80000ed6 <forkret+0x32>
    // be run from main().
    first = 0;
    fsinit(ROOTDEV);
  }

  usertrapret();
    80000ec6:	00001097          	auipc	ra,0x1
    80000eca:	c98080e7          	jalr	-872(ra) # 80001b5e <usertrapret>
}
    80000ece:	60a2                	ld	ra,8(sp)
    80000ed0:	6402                	ld	s0,0(sp)
    80000ed2:	0141                	addi	sp,sp,16
    80000ed4:	8082                	ret
    first = 0;
    80000ed6:	00008797          	auipc	a5,0x8
    80000eda:	9407ad23          	sw	zero,-1702(a5) # 80008830 <first.1>
    fsinit(ROOTDEV);
    80000ede:	4505                	li	a0,1
    80000ee0:	00002097          	auipc	ra,0x2
    80000ee4:	d82080e7          	jalr	-638(ra) # 80002c62 <fsinit>
    80000ee8:	bff9                	j	80000ec6 <forkret+0x22>

0000000080000eea <allocpid>:
allocpid() {
    80000eea:	1101                	addi	sp,sp,-32
    80000eec:	ec06                	sd	ra,24(sp)
    80000eee:	e822                	sd	s0,16(sp)
    80000ef0:	e426                	sd	s1,8(sp)
    80000ef2:	e04a                	sd	s2,0(sp)
    80000ef4:	1000                	addi	s0,sp,32
  acquire(&pid_lock);
    80000ef6:	00008917          	auipc	s2,0x8
    80000efa:	15a90913          	addi	s2,s2,346 # 80009050 <pid_lock>
    80000efe:	854a                	mv	a0,s2
    80000f00:	00005097          	auipc	ra,0x5
    80000f04:	588080e7          	jalr	1416(ra) # 80006488 <acquire>
  pid = nextpid;
    80000f08:	00008797          	auipc	a5,0x8
    80000f0c:	92c78793          	addi	a5,a5,-1748 # 80008834 <nextpid>
    80000f10:	4384                	lw	s1,0(a5)
  nextpid = nextpid + 1;
    80000f12:	0014871b          	addiw	a4,s1,1
    80000f16:	c398                	sw	a4,0(a5)
  release(&pid_lock);
    80000f18:	854a                	mv	a0,s2
    80000f1a:	00005097          	auipc	ra,0x5
    80000f1e:	622080e7          	jalr	1570(ra) # 8000653c <release>
}
    80000f22:	8526                	mv	a0,s1
    80000f24:	60e2                	ld	ra,24(sp)
    80000f26:	6442                	ld	s0,16(sp)
    80000f28:	64a2                	ld	s1,8(sp)
    80000f2a:	6902                	ld	s2,0(sp)
    80000f2c:	6105                	addi	sp,sp,32
    80000f2e:	8082                	ret

0000000080000f30 <proc_pagetable>:
{
    80000f30:	1101                	addi	sp,sp,-32
    80000f32:	ec06                	sd	ra,24(sp)
    80000f34:	e822                	sd	s0,16(sp)
    80000f36:	e426                	sd	s1,8(sp)
    80000f38:	e04a                	sd	s2,0(sp)
    80000f3a:	1000                	addi	s0,sp,32
    80000f3c:	892a                	mv	s2,a0
  pagetable = uvmcreate();
    80000f3e:	00000097          	auipc	ra,0x0
    80000f42:	880080e7          	jalr	-1920(ra) # 800007be <uvmcreate>
    80000f46:	84aa                	mv	s1,a0
  if(pagetable == 0)
    80000f48:	c121                	beqz	a0,80000f88 <proc_pagetable+0x58>
  if(mappages(pagetable, TRAMPOLINE, PGSIZE,
    80000f4a:	4729                	li	a4,10
    80000f4c:	00006697          	auipc	a3,0x6
    80000f50:	0b468693          	addi	a3,a3,180 # 80007000 <_trampoline>
    80000f54:	6605                	lui	a2,0x1
    80000f56:	040005b7          	lui	a1,0x4000
    80000f5a:	15fd                	addi	a1,a1,-1 # 3ffffff <_entry-0x7c000001>
    80000f5c:	05b2                	slli	a1,a1,0xc
    80000f5e:	fffff097          	auipc	ra,0xfffff
    80000f62:	5e4080e7          	jalr	1508(ra) # 80000542 <mappages>
    80000f66:	02054863          	bltz	a0,80000f96 <proc_pagetable+0x66>
  if(mappages(pagetable, TRAPFRAME, PGSIZE,
    80000f6a:	4719                	li	a4,6
    80000f6c:	05893683          	ld	a3,88(s2)
    80000f70:	6605                	lui	a2,0x1
    80000f72:	020005b7          	lui	a1,0x2000
    80000f76:	15fd                	addi	a1,a1,-1 # 1ffffff <_entry-0x7e000001>
    80000f78:	05b6                	slli	a1,a1,0xd
    80000f7a:	8526                	mv	a0,s1
    80000f7c:	fffff097          	auipc	ra,0xfffff
    80000f80:	5c6080e7          	jalr	1478(ra) # 80000542 <mappages>
    80000f84:	02054163          	bltz	a0,80000fa6 <proc_pagetable+0x76>
}
    80000f88:	8526                	mv	a0,s1
    80000f8a:	60e2                	ld	ra,24(sp)
    80000f8c:	6442                	ld	s0,16(sp)
    80000f8e:	64a2                	ld	s1,8(sp)
    80000f90:	6902                	ld	s2,0(sp)
    80000f92:	6105                	addi	sp,sp,32
    80000f94:	8082                	ret
    uvmfree(pagetable, 0);
    80000f96:	4581                	li	a1,0
    80000f98:	8526                	mv	a0,s1
    80000f9a:	00000097          	auipc	ra,0x0
    80000f9e:	a22080e7          	jalr	-1502(ra) # 800009bc <uvmfree>
    return 0;
    80000fa2:	4481                	li	s1,0
    80000fa4:	b7d5                	j	80000f88 <proc_pagetable+0x58>
    uvmunmap(pagetable, TRAMPOLINE, 1, 0);
    80000fa6:	4681                	li	a3,0
    80000fa8:	4605                	li	a2,1
    80000faa:	040005b7          	lui	a1,0x4000
    80000fae:	15fd                	addi	a1,a1,-1 # 3ffffff <_entry-0x7c000001>
    80000fb0:	05b2                	slli	a1,a1,0xc
    80000fb2:	8526                	mv	a0,s1
    80000fb4:	fffff097          	auipc	ra,0xfffff
    80000fb8:	754080e7          	jalr	1876(ra) # 80000708 <uvmunmap>
    uvmfree(pagetable, 0);
    80000fbc:	4581                	li	a1,0
    80000fbe:	8526                	mv	a0,s1
    80000fc0:	00000097          	auipc	ra,0x0
    80000fc4:	9fc080e7          	jalr	-1540(ra) # 800009bc <uvmfree>
    return 0;
    80000fc8:	4481                	li	s1,0
    80000fca:	bf7d                	j	80000f88 <proc_pagetable+0x58>

0000000080000fcc <proc_freepagetable>:
{
    80000fcc:	1101                	addi	sp,sp,-32
    80000fce:	ec06                	sd	ra,24(sp)
    80000fd0:	e822                	sd	s0,16(sp)
    80000fd2:	e426                	sd	s1,8(sp)
    80000fd4:	e04a                	sd	s2,0(sp)
    80000fd6:	1000                	addi	s0,sp,32
    80000fd8:	84aa                	mv	s1,a0
    80000fda:	892e                	mv	s2,a1
  uvmunmap(pagetable, TRAMPOLINE, 1, 0);
    80000fdc:	4681                	li	a3,0
    80000fde:	4605                	li	a2,1
    80000fe0:	040005b7          	lui	a1,0x4000
    80000fe4:	15fd                	addi	a1,a1,-1 # 3ffffff <_entry-0x7c000001>
    80000fe6:	05b2                	slli	a1,a1,0xc
    80000fe8:	fffff097          	auipc	ra,0xfffff
    80000fec:	720080e7          	jalr	1824(ra) # 80000708 <uvmunmap>
  uvmunmap(pagetable, TRAPFRAME, 1, 0);
    80000ff0:	4681                	li	a3,0
    80000ff2:	4605                	li	a2,1
    80000ff4:	020005b7          	lui	a1,0x2000
    80000ff8:	15fd                	addi	a1,a1,-1 # 1ffffff <_entry-0x7e000001>
    80000ffa:	05b6                	slli	a1,a1,0xd
    80000ffc:	8526                	mv	a0,s1
    80000ffe:	fffff097          	auipc	ra,0xfffff
    80001002:	70a080e7          	jalr	1802(ra) # 80000708 <uvmunmap>
  uvmfree(pagetable, sz);
    80001006:	85ca                	mv	a1,s2
    80001008:	8526                	mv	a0,s1
    8000100a:	00000097          	auipc	ra,0x0
    8000100e:	9b2080e7          	jalr	-1614(ra) # 800009bc <uvmfree>
}
    80001012:	60e2                	ld	ra,24(sp)
    80001014:	6442                	ld	s0,16(sp)
    80001016:	64a2                	ld	s1,8(sp)
    80001018:	6902                	ld	s2,0(sp)
    8000101a:	6105                	addi	sp,sp,32
    8000101c:	8082                	ret

000000008000101e <freeproc>:
{
    8000101e:	1101                	addi	sp,sp,-32
    80001020:	ec06                	sd	ra,24(sp)
    80001022:	e822                	sd	s0,16(sp)
    80001024:	e426                	sd	s1,8(sp)
    80001026:	1000                	addi	s0,sp,32
    80001028:	84aa                	mv	s1,a0
  if(p->trapframe)
    8000102a:	6d28                	ld	a0,88(a0)
    8000102c:	c509                	beqz	a0,80001036 <freeproc+0x18>
    kfree((void*)p->trapframe);
    8000102e:	fffff097          	auipc	ra,0xfffff
    80001032:	fee080e7          	jalr	-18(ra) # 8000001c <kfree>
  p->trapframe = 0;
    80001036:	0404bc23          	sd	zero,88(s1)
  if(p->pagetable)
    8000103a:	68a8                	ld	a0,80(s1)
    8000103c:	c511                	beqz	a0,80001048 <freeproc+0x2a>
    proc_freepagetable(p->pagetable, p->sz);
    8000103e:	64ac                	ld	a1,72(s1)
    80001040:	00000097          	auipc	ra,0x0
    80001044:	f8c080e7          	jalr	-116(ra) # 80000fcc <proc_freepagetable>
  p->pagetable = 0;
    80001048:	0404b823          	sd	zero,80(s1)
  p->sz = 0;
    8000104c:	0404b423          	sd	zero,72(s1)
  p->pid = 0;
    80001050:	0204a823          	sw	zero,48(s1)
  p->parent = 0;
    80001054:	0204bc23          	sd	zero,56(s1)
  p->name[0] = 0;
    80001058:	14048c23          	sb	zero,344(s1)
  p->chan = 0;
    8000105c:	0204b023          	sd	zero,32(s1)
  p->killed = 0;
    80001060:	0204a423          	sw	zero,40(s1)
  p->xstate = 0;
    80001064:	0204a623          	sw	zero,44(s1)
  p->state = UNUSED;
    80001068:	0004ac23          	sw	zero,24(s1)
}
    8000106c:	60e2                	ld	ra,24(sp)
    8000106e:	6442                	ld	s0,16(sp)
    80001070:	64a2                	ld	s1,8(sp)
    80001072:	6105                	addi	sp,sp,32
    80001074:	8082                	ret

0000000080001076 <allocproc>:
{
    80001076:	1101                	addi	sp,sp,-32
    80001078:	ec06                	sd	ra,24(sp)
    8000107a:	e822                	sd	s0,16(sp)
    8000107c:	e426                	sd	s1,8(sp)
    8000107e:	e04a                	sd	s2,0(sp)
    80001080:	1000                	addi	s0,sp,32
  for(p = proc; p < &proc[NPROC]; p++) {
    80001082:	00008497          	auipc	s1,0x8
    80001086:	3fe48493          	addi	s1,s1,1022 # 80009480 <proc>
    8000108a:	00018917          	auipc	s2,0x18
    8000108e:	ff690913          	addi	s2,s2,-10 # 80019080 <tickslock>
    acquire(&p->lock);
    80001092:	8526                	mv	a0,s1
    80001094:	00005097          	auipc	ra,0x5
    80001098:	3f4080e7          	jalr	1012(ra) # 80006488 <acquire>
    if(p->state == UNUSED) {
    8000109c:	4c9c                	lw	a5,24(s1)
    8000109e:	cf81                	beqz	a5,800010b6 <allocproc+0x40>
      release(&p->lock);
    800010a0:	8526                	mv	a0,s1
    800010a2:	00005097          	auipc	ra,0x5
    800010a6:	49a080e7          	jalr	1178(ra) # 8000653c <release>
  for(p = proc; p < &proc[NPROC]; p++) {
    800010aa:	3f048493          	addi	s1,s1,1008
    800010ae:	ff2492e3          	bne	s1,s2,80001092 <allocproc+0x1c>
  return 0;
    800010b2:	4481                	li	s1,0
    800010b4:	a889                	j	80001106 <allocproc+0x90>
  p->pid = allocpid();
    800010b6:	00000097          	auipc	ra,0x0
    800010ba:	e34080e7          	jalr	-460(ra) # 80000eea <allocpid>
    800010be:	d888                	sw	a0,48(s1)
  p->state = USED;
    800010c0:	4785                	li	a5,1
    800010c2:	cc9c                	sw	a5,24(s1)
  if((p->trapframe = (struct trapframe *)kalloc()) == 0){
    800010c4:	fffff097          	auipc	ra,0xfffff
    800010c8:	056080e7          	jalr	86(ra) # 8000011a <kalloc>
    800010cc:	892a                	mv	s2,a0
    800010ce:	eca8                	sd	a0,88(s1)
    800010d0:	c131                	beqz	a0,80001114 <allocproc+0x9e>
  p->pagetable = proc_pagetable(p);
    800010d2:	8526                	mv	a0,s1
    800010d4:	00000097          	auipc	ra,0x0
    800010d8:	e5c080e7          	jalr	-420(ra) # 80000f30 <proc_pagetable>
    800010dc:	892a                	mv	s2,a0
    800010de:	e8a8                	sd	a0,80(s1)
  if(p->pagetable == 0){
    800010e0:	c531                	beqz	a0,8000112c <allocproc+0xb6>
  memset(&p->context, 0, sizeof(p->context));
    800010e2:	07000613          	li	a2,112
    800010e6:	4581                	li	a1,0
    800010e8:	06048513          	addi	a0,s1,96
    800010ec:	fffff097          	auipc	ra,0xfffff
    800010f0:	08e080e7          	jalr	142(ra) # 8000017a <memset>
  p->context.ra = (uint64)forkret;
    800010f4:	00000797          	auipc	a5,0x0
    800010f8:	db078793          	addi	a5,a5,-592 # 80000ea4 <forkret>
    800010fc:	f0bc                	sd	a5,96(s1)
  p->context.sp = p->kstack + PGSIZE;
    800010fe:	60bc                	ld	a5,64(s1)
    80001100:	6705                	lui	a4,0x1
    80001102:	97ba                	add	a5,a5,a4
    80001104:	f4bc                	sd	a5,104(s1)
}
    80001106:	8526                	mv	a0,s1
    80001108:	60e2                	ld	ra,24(sp)
    8000110a:	6442                	ld	s0,16(sp)
    8000110c:	64a2                	ld	s1,8(sp)
    8000110e:	6902                	ld	s2,0(sp)
    80001110:	6105                	addi	sp,sp,32
    80001112:	8082                	ret
    freeproc(p);
    80001114:	8526                	mv	a0,s1
    80001116:	00000097          	auipc	ra,0x0
    8000111a:	f08080e7          	jalr	-248(ra) # 8000101e <freeproc>
    release(&p->lock);
    8000111e:	8526                	mv	a0,s1
    80001120:	00005097          	auipc	ra,0x5
    80001124:	41c080e7          	jalr	1052(ra) # 8000653c <release>
    return 0;
    80001128:	84ca                	mv	s1,s2
    8000112a:	bff1                	j	80001106 <allocproc+0x90>
    freeproc(p);
    8000112c:	8526                	mv	a0,s1
    8000112e:	00000097          	auipc	ra,0x0
    80001132:	ef0080e7          	jalr	-272(ra) # 8000101e <freeproc>
    release(&p->lock);
    80001136:	8526                	mv	a0,s1
    80001138:	00005097          	auipc	ra,0x5
    8000113c:	404080e7          	jalr	1028(ra) # 8000653c <release>
    return 0;
    80001140:	84ca                	mv	s1,s2
    80001142:	b7d1                	j	80001106 <allocproc+0x90>

0000000080001144 <userinit>:
{
    80001144:	1101                	addi	sp,sp,-32
    80001146:	ec06                	sd	ra,24(sp)
    80001148:	e822                	sd	s0,16(sp)
    8000114a:	e426                	sd	s1,8(sp)
    8000114c:	1000                	addi	s0,sp,32
  p = allocproc();
    8000114e:	00000097          	auipc	ra,0x0
    80001152:	f28080e7          	jalr	-216(ra) # 80001076 <allocproc>
    80001156:	84aa                	mv	s1,a0
  initproc = p;
    80001158:	00008797          	auipc	a5,0x8
    8000115c:	eaa7bc23          	sd	a0,-328(a5) # 80009010 <initproc>
  uvminit(p->pagetable, initcode, sizeof(initcode));
    80001160:	03400613          	li	a2,52
    80001164:	00007597          	auipc	a1,0x7
    80001168:	6dc58593          	addi	a1,a1,1756 # 80008840 <initcode>
    8000116c:	6928                	ld	a0,80(a0)
    8000116e:	fffff097          	auipc	ra,0xfffff
    80001172:	67e080e7          	jalr	1662(ra) # 800007ec <uvminit>
  p->sz = PGSIZE;
    80001176:	6785                	lui	a5,0x1
    80001178:	e4bc                	sd	a5,72(s1)
  p->trapframe->epc = 0;      // user program counter
    8000117a:	6cb8                	ld	a4,88(s1)
    8000117c:	00073c23          	sd	zero,24(a4) # 1018 <_entry-0x7fffefe8>
  p->trapframe->sp = PGSIZE;  // user stack pointer
    80001180:	6cb8                	ld	a4,88(s1)
    80001182:	fb1c                	sd	a5,48(a4)
  safestrcpy(p->name, "initcode", sizeof(p->name));
    80001184:	4641                	li	a2,16
    80001186:	00007597          	auipc	a1,0x7
    8000118a:	fe258593          	addi	a1,a1,-30 # 80008168 <etext+0x168>
    8000118e:	15848513          	addi	a0,s1,344
    80001192:	fffff097          	auipc	ra,0xfffff
    80001196:	132080e7          	jalr	306(ra) # 800002c4 <safestrcpy>
  p->cwd = namei("/");
    8000119a:	00007517          	auipc	a0,0x7
    8000119e:	fde50513          	addi	a0,a0,-34 # 80008178 <etext+0x178>
    800011a2:	00002097          	auipc	ra,0x2
    800011a6:	4f6080e7          	jalr	1270(ra) # 80003698 <namei>
    800011aa:	14a4b823          	sd	a0,336(s1)
  p->state = RUNNABLE;
    800011ae:	478d                	li	a5,3
    800011b0:	cc9c                	sw	a5,24(s1)
  release(&p->lock);
    800011b2:	8526                	mv	a0,s1
    800011b4:	00005097          	auipc	ra,0x5
    800011b8:	388080e7          	jalr	904(ra) # 8000653c <release>
}
    800011bc:	60e2                	ld	ra,24(sp)
    800011be:	6442                	ld	s0,16(sp)
    800011c0:	64a2                	ld	s1,8(sp)
    800011c2:	6105                	addi	sp,sp,32
    800011c4:	8082                	ret

00000000800011c6 <growproc>:
{
    800011c6:	1101                	addi	sp,sp,-32
    800011c8:	ec06                	sd	ra,24(sp)
    800011ca:	e822                	sd	s0,16(sp)
    800011cc:	e426                	sd	s1,8(sp)
    800011ce:	e04a                	sd	s2,0(sp)
    800011d0:	1000                	addi	s0,sp,32
    800011d2:	84aa                	mv	s1,a0
  struct proc *p = myproc();
    800011d4:	00000097          	auipc	ra,0x0
    800011d8:	c98080e7          	jalr	-872(ra) # 80000e6c <myproc>
    800011dc:	892a                	mv	s2,a0
  sz = p->sz;
    800011de:	652c                	ld	a1,72(a0)
    800011e0:	0005879b          	sext.w	a5,a1
  if(n > 0){
    800011e4:	00904f63          	bgtz	s1,80001202 <growproc+0x3c>
  } else if(n < 0){
    800011e8:	0204cd63          	bltz	s1,80001222 <growproc+0x5c>
  p->sz = sz;
    800011ec:	1782                	slli	a5,a5,0x20
    800011ee:	9381                	srli	a5,a5,0x20
    800011f0:	04f93423          	sd	a5,72(s2)
  return 0;
    800011f4:	4501                	li	a0,0
}
    800011f6:	60e2                	ld	ra,24(sp)
    800011f8:	6442                	ld	s0,16(sp)
    800011fa:	64a2                	ld	s1,8(sp)
    800011fc:	6902                	ld	s2,0(sp)
    800011fe:	6105                	addi	sp,sp,32
    80001200:	8082                	ret
    if((sz = uvmalloc(p->pagetable, sz, sz + n)) == 0) {
    80001202:	00f4863b          	addw	a2,s1,a5
    80001206:	1602                	slli	a2,a2,0x20
    80001208:	9201                	srli	a2,a2,0x20
    8000120a:	1582                	slli	a1,a1,0x20
    8000120c:	9181                	srli	a1,a1,0x20
    8000120e:	6928                	ld	a0,80(a0)
    80001210:	fffff097          	auipc	ra,0xfffff
    80001214:	696080e7          	jalr	1686(ra) # 800008a6 <uvmalloc>
    80001218:	0005079b          	sext.w	a5,a0
    8000121c:	fbe1                	bnez	a5,800011ec <growproc+0x26>
      return -1;
    8000121e:	557d                	li	a0,-1
    80001220:	bfd9                	j	800011f6 <growproc+0x30>
    sz = uvmdealloc(p->pagetable, sz, sz + n);
    80001222:	00f4863b          	addw	a2,s1,a5
    80001226:	1602                	slli	a2,a2,0x20
    80001228:	9201                	srli	a2,a2,0x20
    8000122a:	1582                	slli	a1,a1,0x20
    8000122c:	9181                	srli	a1,a1,0x20
    8000122e:	6928                	ld	a0,80(a0)
    80001230:	fffff097          	auipc	ra,0xfffff
    80001234:	62e080e7          	jalr	1582(ra) # 8000085e <uvmdealloc>
    80001238:	0005079b          	sext.w	a5,a0
    8000123c:	bf45                	j	800011ec <growproc+0x26>

000000008000123e <fork>:
{
    8000123e:	7139                	addi	sp,sp,-64
    80001240:	fc06                	sd	ra,56(sp)
    80001242:	f822                	sd	s0,48(sp)
    80001244:	f426                	sd	s1,40(sp)
    80001246:	f04a                	sd	s2,32(sp)
    80001248:	ec4e                	sd	s3,24(sp)
    8000124a:	e852                	sd	s4,16(sp)
    8000124c:	e456                	sd	s5,8(sp)
    8000124e:	0080                	addi	s0,sp,64
  struct proc *p = myproc();
    80001250:	00000097          	auipc	ra,0x0
    80001254:	c1c080e7          	jalr	-996(ra) # 80000e6c <myproc>
    80001258:	8a2a                	mv	s4,a0
  if((np = allocproc()) == 0){
    8000125a:	00000097          	auipc	ra,0x0
    8000125e:	e1c080e7          	jalr	-484(ra) # 80001076 <allocproc>
    80001262:	16050163          	beqz	a0,800013c4 <fork+0x186>
    80001266:	89aa                	mv	s3,a0
    80001268:	170a0493          	addi	s1,s4,368
    8000126c:	17050913          	addi	s2,a0,368
    80001270:	3f0a0a93          	addi	s5,s4,1008
    80001274:	a039                	j	80001282 <fork+0x44>
  for (int i = 0; i < VMA_SIZE; i++) {
    80001276:	02848493          	addi	s1,s1,40
    8000127a:	02890913          	addi	s2,s2,40
    8000127e:	03548963          	beq	s1,s5,800012b0 <fork+0x72>
    if (p->VMAs[i].valid) {
    80001282:	409c                	lw	a5,0(s1)
    80001284:	dbed                	beqz	a5,80001276 <fork+0x38>
      np->VMAs[i] = p->VMAs[i];
    80001286:	608c                	ld	a1,0(s1)
    80001288:	6490                	ld	a2,8(s1)
    8000128a:	6894                	ld	a3,16(s1)
    8000128c:	6c98                	ld	a4,24(s1)
    8000128e:	709c                	ld	a5,32(s1)
    80001290:	00b93023          	sd	a1,0(s2)
    80001294:	00c93423          	sd	a2,8(s2)
    80001298:	00d93823          	sd	a3,16(s2)
    8000129c:	00e93c23          	sd	a4,24(s2)
    800012a0:	02f93023          	sd	a5,32(s2)
      filedup(p->VMAs[i].file);
    800012a4:	7088                	ld	a0,32(s1)
    800012a6:	00003097          	auipc	ra,0x3
    800012aa:	a88080e7          	jalr	-1400(ra) # 80003d2e <filedup>
    800012ae:	b7e1                	j	80001276 <fork+0x38>
  if(uvmcopy(p->pagetable, np->pagetable, p->sz) < 0){
    800012b0:	048a3603          	ld	a2,72(s4)
    800012b4:	0509b583          	ld	a1,80(s3)
    800012b8:	050a3503          	ld	a0,80(s4)
    800012bc:	fffff097          	auipc	ra,0xfffff
    800012c0:	73a080e7          	jalr	1850(ra) # 800009f6 <uvmcopy>
    800012c4:	04054863          	bltz	a0,80001314 <fork+0xd6>
  np->sz = p->sz;
    800012c8:	048a3783          	ld	a5,72(s4)
    800012cc:	04f9b423          	sd	a5,72(s3)
  *(np->trapframe) = *(p->trapframe);
    800012d0:	058a3683          	ld	a3,88(s4)
    800012d4:	87b6                	mv	a5,a3
    800012d6:	0589b703          	ld	a4,88(s3)
    800012da:	12068693          	addi	a3,a3,288
    800012de:	0007b803          	ld	a6,0(a5) # 1000 <_entry-0x7ffff000>
    800012e2:	6788                	ld	a0,8(a5)
    800012e4:	6b8c                	ld	a1,16(a5)
    800012e6:	6f90                	ld	a2,24(a5)
    800012e8:	01073023          	sd	a6,0(a4)
    800012ec:	e708                	sd	a0,8(a4)
    800012ee:	eb0c                	sd	a1,16(a4)
    800012f0:	ef10                	sd	a2,24(a4)
    800012f2:	02078793          	addi	a5,a5,32
    800012f6:	02070713          	addi	a4,a4,32
    800012fa:	fed792e3          	bne	a5,a3,800012de <fork+0xa0>
  np->trapframe->a0 = 0;
    800012fe:	0589b783          	ld	a5,88(s3)
    80001302:	0607b823          	sd	zero,112(a5)
  for(i = 0; i < NOFILE; i++)
    80001306:	0d0a0493          	addi	s1,s4,208
    8000130a:	0d098913          	addi	s2,s3,208
    8000130e:	150a0a93          	addi	s5,s4,336
    80001312:	a03d                	j	80001340 <fork+0x102>
    freeproc(np);
    80001314:	854e                	mv	a0,s3
    80001316:	00000097          	auipc	ra,0x0
    8000131a:	d08080e7          	jalr	-760(ra) # 8000101e <freeproc>
    release(&np->lock);
    8000131e:	854e                	mv	a0,s3
    80001320:	00005097          	auipc	ra,0x5
    80001324:	21c080e7          	jalr	540(ra) # 8000653c <release>
    return -1;
    80001328:	597d                	li	s2,-1
    8000132a:	a059                	j	800013b0 <fork+0x172>
      np->ofile[i] = filedup(p->ofile[i]);
    8000132c:	00003097          	auipc	ra,0x3
    80001330:	a02080e7          	jalr	-1534(ra) # 80003d2e <filedup>
    80001334:	00a93023          	sd	a0,0(s2)
  for(i = 0; i < NOFILE; i++)
    80001338:	04a1                	addi	s1,s1,8
    8000133a:	0921                	addi	s2,s2,8
    8000133c:	01548563          	beq	s1,s5,80001346 <fork+0x108>
    if(p->ofile[i])
    80001340:	6088                	ld	a0,0(s1)
    80001342:	f56d                	bnez	a0,8000132c <fork+0xee>
    80001344:	bfd5                	j	80001338 <fork+0xfa>
  np->cwd = idup(p->cwd);
    80001346:	150a3503          	ld	a0,336(s4)
    8000134a:	00002097          	auipc	ra,0x2
    8000134e:	b54080e7          	jalr	-1196(ra) # 80002e9e <idup>
    80001352:	14a9b823          	sd	a0,336(s3)
  safestrcpy(np->name, p->name, sizeof(p->name));
    80001356:	4641                	li	a2,16
    80001358:	158a0593          	addi	a1,s4,344
    8000135c:	15898513          	addi	a0,s3,344
    80001360:	fffff097          	auipc	ra,0xfffff
    80001364:	f64080e7          	jalr	-156(ra) # 800002c4 <safestrcpy>
  pid = np->pid;
    80001368:	0309a903          	lw	s2,48(s3)
  release(&np->lock);
    8000136c:	854e                	mv	a0,s3
    8000136e:	00005097          	auipc	ra,0x5
    80001372:	1ce080e7          	jalr	462(ra) # 8000653c <release>
  acquire(&wait_lock);
    80001376:	00008497          	auipc	s1,0x8
    8000137a:	cf248493          	addi	s1,s1,-782 # 80009068 <wait_lock>
    8000137e:	8526                	mv	a0,s1
    80001380:	00005097          	auipc	ra,0x5
    80001384:	108080e7          	jalr	264(ra) # 80006488 <acquire>
  np->parent = p;
    80001388:	0349bc23          	sd	s4,56(s3)
  release(&wait_lock);
    8000138c:	8526                	mv	a0,s1
    8000138e:	00005097          	auipc	ra,0x5
    80001392:	1ae080e7          	jalr	430(ra) # 8000653c <release>
  acquire(&np->lock);
    80001396:	854e                	mv	a0,s3
    80001398:	00005097          	auipc	ra,0x5
    8000139c:	0f0080e7          	jalr	240(ra) # 80006488 <acquire>
  np->state = RUNNABLE;
    800013a0:	478d                	li	a5,3
    800013a2:	00f9ac23          	sw	a5,24(s3)
  release(&np->lock);
    800013a6:	854e                	mv	a0,s3
    800013a8:	00005097          	auipc	ra,0x5
    800013ac:	194080e7          	jalr	404(ra) # 8000653c <release>
}
    800013b0:	854a                	mv	a0,s2
    800013b2:	70e2                	ld	ra,56(sp)
    800013b4:	7442                	ld	s0,48(sp)
    800013b6:	74a2                	ld	s1,40(sp)
    800013b8:	7902                	ld	s2,32(sp)
    800013ba:	69e2                	ld	s3,24(sp)
    800013bc:	6a42                	ld	s4,16(sp)
    800013be:	6aa2                	ld	s5,8(sp)
    800013c0:	6121                	addi	sp,sp,64
    800013c2:	8082                	ret
    return -1;
    800013c4:	597d                	li	s2,-1
    800013c6:	b7ed                	j	800013b0 <fork+0x172>

00000000800013c8 <scheduler>:
{
    800013c8:	7139                	addi	sp,sp,-64
    800013ca:	fc06                	sd	ra,56(sp)
    800013cc:	f822                	sd	s0,48(sp)
    800013ce:	f426                	sd	s1,40(sp)
    800013d0:	f04a                	sd	s2,32(sp)
    800013d2:	ec4e                	sd	s3,24(sp)
    800013d4:	e852                	sd	s4,16(sp)
    800013d6:	e456                	sd	s5,8(sp)
    800013d8:	e05a                	sd	s6,0(sp)
    800013da:	0080                	addi	s0,sp,64
    800013dc:	8792                	mv	a5,tp
  int id = r_tp();
    800013de:	2781                	sext.w	a5,a5
  c->proc = 0;
    800013e0:	00779a93          	slli	s5,a5,0x7
    800013e4:	00008717          	auipc	a4,0x8
    800013e8:	c6c70713          	addi	a4,a4,-916 # 80009050 <pid_lock>
    800013ec:	9756                	add	a4,a4,s5
    800013ee:	02073823          	sd	zero,48(a4)
        swtch(&c->context, &p->context);
    800013f2:	00008717          	auipc	a4,0x8
    800013f6:	c9670713          	addi	a4,a4,-874 # 80009088 <cpus+0x8>
    800013fa:	9aba                	add	s5,s5,a4
      if(p->state == RUNNABLE) {
    800013fc:	498d                	li	s3,3
        p->state = RUNNING;
    800013fe:	4b11                	li	s6,4
        c->proc = p;
    80001400:	079e                	slli	a5,a5,0x7
    80001402:	00008a17          	auipc	s4,0x8
    80001406:	c4ea0a13          	addi	s4,s4,-946 # 80009050 <pid_lock>
    8000140a:	9a3e                	add	s4,s4,a5
    for(p = proc; p < &proc[NPROC]; p++) {
    8000140c:	00018917          	auipc	s2,0x18
    80001410:	c7490913          	addi	s2,s2,-908 # 80019080 <tickslock>
  asm volatile("csrr %0, sstatus" : "=r" (x) );
    80001414:	100027f3          	csrr	a5,sstatus
  w_sstatus(r_sstatus() | SSTATUS_SIE);
    80001418:	0027e793          	ori	a5,a5,2
  asm volatile("csrw sstatus, %0" : : "r" (x));
    8000141c:	10079073          	csrw	sstatus,a5
    80001420:	00008497          	auipc	s1,0x8
    80001424:	06048493          	addi	s1,s1,96 # 80009480 <proc>
    80001428:	a811                	j	8000143c <scheduler+0x74>
      release(&p->lock);
    8000142a:	8526                	mv	a0,s1
    8000142c:	00005097          	auipc	ra,0x5
    80001430:	110080e7          	jalr	272(ra) # 8000653c <release>
    for(p = proc; p < &proc[NPROC]; p++) {
    80001434:	3f048493          	addi	s1,s1,1008
    80001438:	fd248ee3          	beq	s1,s2,80001414 <scheduler+0x4c>
      acquire(&p->lock);
    8000143c:	8526                	mv	a0,s1
    8000143e:	00005097          	auipc	ra,0x5
    80001442:	04a080e7          	jalr	74(ra) # 80006488 <acquire>
      if(p->state == RUNNABLE) {
    80001446:	4c9c                	lw	a5,24(s1)
    80001448:	ff3791e3          	bne	a5,s3,8000142a <scheduler+0x62>
        p->state = RUNNING;
    8000144c:	0164ac23          	sw	s6,24(s1)
        c->proc = p;
    80001450:	029a3823          	sd	s1,48(s4)
        swtch(&c->context, &p->context);
    80001454:	06048593          	addi	a1,s1,96
    80001458:	8556                	mv	a0,s5
    8000145a:	00000097          	auipc	ra,0x0
    8000145e:	65a080e7          	jalr	1626(ra) # 80001ab4 <swtch>
        c->proc = 0;
    80001462:	020a3823          	sd	zero,48(s4)
    80001466:	b7d1                	j	8000142a <scheduler+0x62>

0000000080001468 <sched>:
{
    80001468:	7179                	addi	sp,sp,-48
    8000146a:	f406                	sd	ra,40(sp)
    8000146c:	f022                	sd	s0,32(sp)
    8000146e:	ec26                	sd	s1,24(sp)
    80001470:	e84a                	sd	s2,16(sp)
    80001472:	e44e                	sd	s3,8(sp)
    80001474:	1800                	addi	s0,sp,48
  struct proc *p = myproc();
    80001476:	00000097          	auipc	ra,0x0
    8000147a:	9f6080e7          	jalr	-1546(ra) # 80000e6c <myproc>
    8000147e:	84aa                	mv	s1,a0
  if(!holding(&p->lock))
    80001480:	00005097          	auipc	ra,0x5
    80001484:	f8e080e7          	jalr	-114(ra) # 8000640e <holding>
    80001488:	c93d                	beqz	a0,800014fe <sched+0x96>
  asm volatile("mv %0, tp" : "=r" (x) );
    8000148a:	8792                	mv	a5,tp
  if(mycpu()->noff != 1)
    8000148c:	2781                	sext.w	a5,a5
    8000148e:	079e                	slli	a5,a5,0x7
    80001490:	00008717          	auipc	a4,0x8
    80001494:	bc070713          	addi	a4,a4,-1088 # 80009050 <pid_lock>
    80001498:	97ba                	add	a5,a5,a4
    8000149a:	0a87a703          	lw	a4,168(a5)
    8000149e:	4785                	li	a5,1
    800014a0:	06f71763          	bne	a4,a5,8000150e <sched+0xa6>
  if(p->state == RUNNING)
    800014a4:	4c98                	lw	a4,24(s1)
    800014a6:	4791                	li	a5,4
    800014a8:	06f70b63          	beq	a4,a5,8000151e <sched+0xb6>
  asm volatile("csrr %0, sstatus" : "=r" (x) );
    800014ac:	100027f3          	csrr	a5,sstatus
  return (x & SSTATUS_SIE) != 0;
    800014b0:	8b89                	andi	a5,a5,2
  if(intr_get())
    800014b2:	efb5                	bnez	a5,8000152e <sched+0xc6>
  asm volatile("mv %0, tp" : "=r" (x) );
    800014b4:	8792                	mv	a5,tp
  intena = mycpu()->intena;
    800014b6:	00008917          	auipc	s2,0x8
    800014ba:	b9a90913          	addi	s2,s2,-1126 # 80009050 <pid_lock>
    800014be:	2781                	sext.w	a5,a5
    800014c0:	079e                	slli	a5,a5,0x7
    800014c2:	97ca                	add	a5,a5,s2
    800014c4:	0ac7a983          	lw	s3,172(a5)
    800014c8:	8792                	mv	a5,tp
  swtch(&p->context, &mycpu()->context);
    800014ca:	2781                	sext.w	a5,a5
    800014cc:	079e                	slli	a5,a5,0x7
    800014ce:	00008597          	auipc	a1,0x8
    800014d2:	bba58593          	addi	a1,a1,-1094 # 80009088 <cpus+0x8>
    800014d6:	95be                	add	a1,a1,a5
    800014d8:	06048513          	addi	a0,s1,96
    800014dc:	00000097          	auipc	ra,0x0
    800014e0:	5d8080e7          	jalr	1496(ra) # 80001ab4 <swtch>
    800014e4:	8792                	mv	a5,tp
  mycpu()->intena = intena;
    800014e6:	2781                	sext.w	a5,a5
    800014e8:	079e                	slli	a5,a5,0x7
    800014ea:	993e                	add	s2,s2,a5
    800014ec:	0b392623          	sw	s3,172(s2)
}
    800014f0:	70a2                	ld	ra,40(sp)
    800014f2:	7402                	ld	s0,32(sp)
    800014f4:	64e2                	ld	s1,24(sp)
    800014f6:	6942                	ld	s2,16(sp)
    800014f8:	69a2                	ld	s3,8(sp)
    800014fa:	6145                	addi	sp,sp,48
    800014fc:	8082                	ret
    panic("sched p->lock");
    800014fe:	00007517          	auipc	a0,0x7
    80001502:	c8250513          	addi	a0,a0,-894 # 80008180 <etext+0x180>
    80001506:	00005097          	auipc	ra,0x5
    8000150a:	a4a080e7          	jalr	-1462(ra) # 80005f50 <panic>
    panic("sched locks");
    8000150e:	00007517          	auipc	a0,0x7
    80001512:	c8250513          	addi	a0,a0,-894 # 80008190 <etext+0x190>
    80001516:	00005097          	auipc	ra,0x5
    8000151a:	a3a080e7          	jalr	-1478(ra) # 80005f50 <panic>
    panic("sched running");
    8000151e:	00007517          	auipc	a0,0x7
    80001522:	c8250513          	addi	a0,a0,-894 # 800081a0 <etext+0x1a0>
    80001526:	00005097          	auipc	ra,0x5
    8000152a:	a2a080e7          	jalr	-1494(ra) # 80005f50 <panic>
    panic("sched interruptible");
    8000152e:	00007517          	auipc	a0,0x7
    80001532:	c8250513          	addi	a0,a0,-894 # 800081b0 <etext+0x1b0>
    80001536:	00005097          	auipc	ra,0x5
    8000153a:	a1a080e7          	jalr	-1510(ra) # 80005f50 <panic>

000000008000153e <yield>:
{
    8000153e:	1101                	addi	sp,sp,-32
    80001540:	ec06                	sd	ra,24(sp)
    80001542:	e822                	sd	s0,16(sp)
    80001544:	e426                	sd	s1,8(sp)
    80001546:	1000                	addi	s0,sp,32
  struct proc *p = myproc();
    80001548:	00000097          	auipc	ra,0x0
    8000154c:	924080e7          	jalr	-1756(ra) # 80000e6c <myproc>
    80001550:	84aa                	mv	s1,a0
  acquire(&p->lock);
    80001552:	00005097          	auipc	ra,0x5
    80001556:	f36080e7          	jalr	-202(ra) # 80006488 <acquire>
  p->state = RUNNABLE;
    8000155a:	478d                	li	a5,3
    8000155c:	cc9c                	sw	a5,24(s1)
  sched();
    8000155e:	00000097          	auipc	ra,0x0
    80001562:	f0a080e7          	jalr	-246(ra) # 80001468 <sched>
  release(&p->lock);
    80001566:	8526                	mv	a0,s1
    80001568:	00005097          	auipc	ra,0x5
    8000156c:	fd4080e7          	jalr	-44(ra) # 8000653c <release>
}
    80001570:	60e2                	ld	ra,24(sp)
    80001572:	6442                	ld	s0,16(sp)
    80001574:	64a2                	ld	s1,8(sp)
    80001576:	6105                	addi	sp,sp,32
    80001578:	8082                	ret

000000008000157a <sleep>:

// Atomically release lock and sleep on chan.
// Reacquires lock when awakened.
void
sleep(void *chan, struct spinlock *lk)
{
    8000157a:	7179                	addi	sp,sp,-48
    8000157c:	f406                	sd	ra,40(sp)
    8000157e:	f022                	sd	s0,32(sp)
    80001580:	ec26                	sd	s1,24(sp)
    80001582:	e84a                	sd	s2,16(sp)
    80001584:	e44e                	sd	s3,8(sp)
    80001586:	1800                	addi	s0,sp,48
    80001588:	89aa                	mv	s3,a0
    8000158a:	892e                	mv	s2,a1
  struct proc *p = myproc();
    8000158c:	00000097          	auipc	ra,0x0
    80001590:	8e0080e7          	jalr	-1824(ra) # 80000e6c <myproc>
    80001594:	84aa                	mv	s1,a0
  // Once we hold p->lock, we can be
  // guaranteed that we won't miss any wakeup
  // (wakeup locks p->lock),
  // so it's okay to release lk.

  acquire(&p->lock);  //DOC: sleeplock1
    80001596:	00005097          	auipc	ra,0x5
    8000159a:	ef2080e7          	jalr	-270(ra) # 80006488 <acquire>
  release(lk);
    8000159e:	854a                	mv	a0,s2
    800015a0:	00005097          	auipc	ra,0x5
    800015a4:	f9c080e7          	jalr	-100(ra) # 8000653c <release>

  // Go to sleep.
  p->chan = chan;
    800015a8:	0334b023          	sd	s3,32(s1)
  p->state = SLEEPING;
    800015ac:	4789                	li	a5,2
    800015ae:	cc9c                	sw	a5,24(s1)

  sched();
    800015b0:	00000097          	auipc	ra,0x0
    800015b4:	eb8080e7          	jalr	-328(ra) # 80001468 <sched>

  // Tidy up.
  p->chan = 0;
    800015b8:	0204b023          	sd	zero,32(s1)

  // Reacquire original lock.
  release(&p->lock);
    800015bc:	8526                	mv	a0,s1
    800015be:	00005097          	auipc	ra,0x5
    800015c2:	f7e080e7          	jalr	-130(ra) # 8000653c <release>
  acquire(lk);
    800015c6:	854a                	mv	a0,s2
    800015c8:	00005097          	auipc	ra,0x5
    800015cc:	ec0080e7          	jalr	-320(ra) # 80006488 <acquire>
}
    800015d0:	70a2                	ld	ra,40(sp)
    800015d2:	7402                	ld	s0,32(sp)
    800015d4:	64e2                	ld	s1,24(sp)
    800015d6:	6942                	ld	s2,16(sp)
    800015d8:	69a2                	ld	s3,8(sp)
    800015da:	6145                	addi	sp,sp,48
    800015dc:	8082                	ret

00000000800015de <wait>:
{
    800015de:	715d                	addi	sp,sp,-80
    800015e0:	e486                	sd	ra,72(sp)
    800015e2:	e0a2                	sd	s0,64(sp)
    800015e4:	fc26                	sd	s1,56(sp)
    800015e6:	f84a                	sd	s2,48(sp)
    800015e8:	f44e                	sd	s3,40(sp)
    800015ea:	f052                	sd	s4,32(sp)
    800015ec:	ec56                	sd	s5,24(sp)
    800015ee:	e85a                	sd	s6,16(sp)
    800015f0:	e45e                	sd	s7,8(sp)
    800015f2:	e062                	sd	s8,0(sp)
    800015f4:	0880                	addi	s0,sp,80
    800015f6:	8b2a                	mv	s6,a0
  struct proc *p = myproc();
    800015f8:	00000097          	auipc	ra,0x0
    800015fc:	874080e7          	jalr	-1932(ra) # 80000e6c <myproc>
    80001600:	892a                	mv	s2,a0
  acquire(&wait_lock);
    80001602:	00008517          	auipc	a0,0x8
    80001606:	a6650513          	addi	a0,a0,-1434 # 80009068 <wait_lock>
    8000160a:	00005097          	auipc	ra,0x5
    8000160e:	e7e080e7          	jalr	-386(ra) # 80006488 <acquire>
    havekids = 0;
    80001612:	4b81                	li	s7,0
        if(np->state == ZOMBIE){
    80001614:	4a15                	li	s4,5
        havekids = 1;
    80001616:	4a85                	li	s5,1
    for(np = proc; np < &proc[NPROC]; np++){
    80001618:	00018997          	auipc	s3,0x18
    8000161c:	a6898993          	addi	s3,s3,-1432 # 80019080 <tickslock>
    sleep(p, &wait_lock);  //DOC: wait-sleep
    80001620:	00008c17          	auipc	s8,0x8
    80001624:	a48c0c13          	addi	s8,s8,-1464 # 80009068 <wait_lock>
    havekids = 0;
    80001628:	875e                	mv	a4,s7
    for(np = proc; np < &proc[NPROC]; np++){
    8000162a:	00008497          	auipc	s1,0x8
    8000162e:	e5648493          	addi	s1,s1,-426 # 80009480 <proc>
    80001632:	a0bd                	j	800016a0 <wait+0xc2>
          pid = np->pid;
    80001634:	0304a983          	lw	s3,48(s1)
          if(addr != 0 && copyout(p->pagetable, addr, (char *)&np->xstate,
    80001638:	000b0e63          	beqz	s6,80001654 <wait+0x76>
    8000163c:	4691                	li	a3,4
    8000163e:	02c48613          	addi	a2,s1,44
    80001642:	85da                	mv	a1,s6
    80001644:	05093503          	ld	a0,80(s2)
    80001648:	fffff097          	auipc	ra,0xfffff
    8000164c:	4b2080e7          	jalr	1202(ra) # 80000afa <copyout>
    80001650:	02054563          	bltz	a0,8000167a <wait+0x9c>
          freeproc(np);
    80001654:	8526                	mv	a0,s1
    80001656:	00000097          	auipc	ra,0x0
    8000165a:	9c8080e7          	jalr	-1592(ra) # 8000101e <freeproc>
          release(&np->lock);
    8000165e:	8526                	mv	a0,s1
    80001660:	00005097          	auipc	ra,0x5
    80001664:	edc080e7          	jalr	-292(ra) # 8000653c <release>
          release(&wait_lock);
    80001668:	00008517          	auipc	a0,0x8
    8000166c:	a0050513          	addi	a0,a0,-1536 # 80009068 <wait_lock>
    80001670:	00005097          	auipc	ra,0x5
    80001674:	ecc080e7          	jalr	-308(ra) # 8000653c <release>
          return pid;
    80001678:	a09d                	j	800016de <wait+0x100>
            release(&np->lock);
    8000167a:	8526                	mv	a0,s1
    8000167c:	00005097          	auipc	ra,0x5
    80001680:	ec0080e7          	jalr	-320(ra) # 8000653c <release>
            release(&wait_lock);
    80001684:	00008517          	auipc	a0,0x8
    80001688:	9e450513          	addi	a0,a0,-1564 # 80009068 <wait_lock>
    8000168c:	00005097          	auipc	ra,0x5
    80001690:	eb0080e7          	jalr	-336(ra) # 8000653c <release>
            return -1;
    80001694:	59fd                	li	s3,-1
    80001696:	a0a1                	j	800016de <wait+0x100>
    for(np = proc; np < &proc[NPROC]; np++){
    80001698:	3f048493          	addi	s1,s1,1008
    8000169c:	03348463          	beq	s1,s3,800016c4 <wait+0xe6>
      if(np->parent == p){
    800016a0:	7c9c                	ld	a5,56(s1)
    800016a2:	ff279be3          	bne	a5,s2,80001698 <wait+0xba>
        acquire(&np->lock);
    800016a6:	8526                	mv	a0,s1
    800016a8:	00005097          	auipc	ra,0x5
    800016ac:	de0080e7          	jalr	-544(ra) # 80006488 <acquire>
        if(np->state == ZOMBIE){
    800016b0:	4c9c                	lw	a5,24(s1)
    800016b2:	f94781e3          	beq	a5,s4,80001634 <wait+0x56>
        release(&np->lock);
    800016b6:	8526                	mv	a0,s1
    800016b8:	00005097          	auipc	ra,0x5
    800016bc:	e84080e7          	jalr	-380(ra) # 8000653c <release>
        havekids = 1;
    800016c0:	8756                	mv	a4,s5
    800016c2:	bfd9                	j	80001698 <wait+0xba>
    if(!havekids || p->killed){
    800016c4:	c701                	beqz	a4,800016cc <wait+0xee>
    800016c6:	02892783          	lw	a5,40(s2)
    800016ca:	c79d                	beqz	a5,800016f8 <wait+0x11a>
      release(&wait_lock);
    800016cc:	00008517          	auipc	a0,0x8
    800016d0:	99c50513          	addi	a0,a0,-1636 # 80009068 <wait_lock>
    800016d4:	00005097          	auipc	ra,0x5
    800016d8:	e68080e7          	jalr	-408(ra) # 8000653c <release>
      return -1;
    800016dc:	59fd                	li	s3,-1
}
    800016de:	854e                	mv	a0,s3
    800016e0:	60a6                	ld	ra,72(sp)
    800016e2:	6406                	ld	s0,64(sp)
    800016e4:	74e2                	ld	s1,56(sp)
    800016e6:	7942                	ld	s2,48(sp)
    800016e8:	79a2                	ld	s3,40(sp)
    800016ea:	7a02                	ld	s4,32(sp)
    800016ec:	6ae2                	ld	s5,24(sp)
    800016ee:	6b42                	ld	s6,16(sp)
    800016f0:	6ba2                	ld	s7,8(sp)
    800016f2:	6c02                	ld	s8,0(sp)
    800016f4:	6161                	addi	sp,sp,80
    800016f6:	8082                	ret
    sleep(p, &wait_lock);  //DOC: wait-sleep
    800016f8:	85e2                	mv	a1,s8
    800016fa:	854a                	mv	a0,s2
    800016fc:	00000097          	auipc	ra,0x0
    80001700:	e7e080e7          	jalr	-386(ra) # 8000157a <sleep>
    havekids = 0;
    80001704:	b715                	j	80001628 <wait+0x4a>

0000000080001706 <wakeup>:

// Wake up all processes sleeping on chan.
// Must be called without any p->lock.
void
wakeup(void *chan)
{
    80001706:	7139                	addi	sp,sp,-64
    80001708:	fc06                	sd	ra,56(sp)
    8000170a:	f822                	sd	s0,48(sp)
    8000170c:	f426                	sd	s1,40(sp)
    8000170e:	f04a                	sd	s2,32(sp)
    80001710:	ec4e                	sd	s3,24(sp)
    80001712:	e852                	sd	s4,16(sp)
    80001714:	e456                	sd	s5,8(sp)
    80001716:	0080                	addi	s0,sp,64
    80001718:	8a2a                	mv	s4,a0
  struct proc *p;

  for(p = proc; p < &proc[NPROC]; p++) {
    8000171a:	00008497          	auipc	s1,0x8
    8000171e:	d6648493          	addi	s1,s1,-666 # 80009480 <proc>
    if(p != myproc()){
      acquire(&p->lock);
      if(p->state == SLEEPING && p->chan == chan) {
    80001722:	4989                	li	s3,2
        p->state = RUNNABLE;
    80001724:	4a8d                	li	s5,3
  for(p = proc; p < &proc[NPROC]; p++) {
    80001726:	00018917          	auipc	s2,0x18
    8000172a:	95a90913          	addi	s2,s2,-1702 # 80019080 <tickslock>
    8000172e:	a811                	j	80001742 <wakeup+0x3c>
      }
      release(&p->lock);
    80001730:	8526                	mv	a0,s1
    80001732:	00005097          	auipc	ra,0x5
    80001736:	e0a080e7          	jalr	-502(ra) # 8000653c <release>
  for(p = proc; p < &proc[NPROC]; p++) {
    8000173a:	3f048493          	addi	s1,s1,1008
    8000173e:	03248663          	beq	s1,s2,8000176a <wakeup+0x64>
    if(p != myproc()){
    80001742:	fffff097          	auipc	ra,0xfffff
    80001746:	72a080e7          	jalr	1834(ra) # 80000e6c <myproc>
    8000174a:	fea488e3          	beq	s1,a0,8000173a <wakeup+0x34>
      acquire(&p->lock);
    8000174e:	8526                	mv	a0,s1
    80001750:	00005097          	auipc	ra,0x5
    80001754:	d38080e7          	jalr	-712(ra) # 80006488 <acquire>
      if(p->state == SLEEPING && p->chan == chan) {
    80001758:	4c9c                	lw	a5,24(s1)
    8000175a:	fd379be3          	bne	a5,s3,80001730 <wakeup+0x2a>
    8000175e:	709c                	ld	a5,32(s1)
    80001760:	fd4798e3          	bne	a5,s4,80001730 <wakeup+0x2a>
        p->state = RUNNABLE;
    80001764:	0154ac23          	sw	s5,24(s1)
    80001768:	b7e1                	j	80001730 <wakeup+0x2a>
    }
  }
}
    8000176a:	70e2                	ld	ra,56(sp)
    8000176c:	7442                	ld	s0,48(sp)
    8000176e:	74a2                	ld	s1,40(sp)
    80001770:	7902                	ld	s2,32(sp)
    80001772:	69e2                	ld	s3,24(sp)
    80001774:	6a42                	ld	s4,16(sp)
    80001776:	6aa2                	ld	s5,8(sp)
    80001778:	6121                	addi	sp,sp,64
    8000177a:	8082                	ret

000000008000177c <reparent>:
{
    8000177c:	7179                	addi	sp,sp,-48
    8000177e:	f406                	sd	ra,40(sp)
    80001780:	f022                	sd	s0,32(sp)
    80001782:	ec26                	sd	s1,24(sp)
    80001784:	e84a                	sd	s2,16(sp)
    80001786:	e44e                	sd	s3,8(sp)
    80001788:	e052                	sd	s4,0(sp)
    8000178a:	1800                	addi	s0,sp,48
    8000178c:	892a                	mv	s2,a0
  for(pp = proc; pp < &proc[NPROC]; pp++){
    8000178e:	00008497          	auipc	s1,0x8
    80001792:	cf248493          	addi	s1,s1,-782 # 80009480 <proc>
      pp->parent = initproc;
    80001796:	00008a17          	auipc	s4,0x8
    8000179a:	87aa0a13          	addi	s4,s4,-1926 # 80009010 <initproc>
  for(pp = proc; pp < &proc[NPROC]; pp++){
    8000179e:	00018997          	auipc	s3,0x18
    800017a2:	8e298993          	addi	s3,s3,-1822 # 80019080 <tickslock>
    800017a6:	a029                	j	800017b0 <reparent+0x34>
    800017a8:	3f048493          	addi	s1,s1,1008
    800017ac:	01348d63          	beq	s1,s3,800017c6 <reparent+0x4a>
    if(pp->parent == p){
    800017b0:	7c9c                	ld	a5,56(s1)
    800017b2:	ff279be3          	bne	a5,s2,800017a8 <reparent+0x2c>
      pp->parent = initproc;
    800017b6:	000a3503          	ld	a0,0(s4)
    800017ba:	fc88                	sd	a0,56(s1)
      wakeup(initproc);
    800017bc:	00000097          	auipc	ra,0x0
    800017c0:	f4a080e7          	jalr	-182(ra) # 80001706 <wakeup>
    800017c4:	b7d5                	j	800017a8 <reparent+0x2c>
}
    800017c6:	70a2                	ld	ra,40(sp)
    800017c8:	7402                	ld	s0,32(sp)
    800017ca:	64e2                	ld	s1,24(sp)
    800017cc:	6942                	ld	s2,16(sp)
    800017ce:	69a2                	ld	s3,8(sp)
    800017d0:	6a02                	ld	s4,0(sp)
    800017d2:	6145                	addi	sp,sp,48
    800017d4:	8082                	ret

00000000800017d6 <exit>:
{
    800017d6:	7179                	addi	sp,sp,-48
    800017d8:	f406                	sd	ra,40(sp)
    800017da:	f022                	sd	s0,32(sp)
    800017dc:	ec26                	sd	s1,24(sp)
    800017de:	e84a                	sd	s2,16(sp)
    800017e0:	e44e                	sd	s3,8(sp)
    800017e2:	e052                	sd	s4,0(sp)
    800017e4:	1800                	addi	s0,sp,48
    800017e6:	8a2a                	mv	s4,a0
  struct proc *p = myproc();
    800017e8:	fffff097          	auipc	ra,0xfffff
    800017ec:	684080e7          	jalr	1668(ra) # 80000e6c <myproc>
    800017f0:	892a                	mv	s2,a0
  for (int i = 0; i < VMA_SIZE; i++) {
    800017f2:	17050493          	addi	s1,a0,368
    800017f6:	3f050993          	addi	s3,a0,1008
    800017fa:	a029                	j	80001804 <exit+0x2e>
    800017fc:	02848493          	addi	s1,s1,40
    80001800:	03348663          	beq	s1,s3,8000182c <exit+0x56>
    if (p->VMAs[i].valid) {
    80001804:	409c                	lw	a5,0(s1)
    80001806:	dbfd                	beqz	a5,800017fc <exit+0x26>
      uvmunmap(p->pagetable, p->VMAs[i].addr, p->VMAs[i].size, 1);
    80001808:	4685                	li	a3,1
    8000180a:	6890                	ld	a2,16(s1)
    8000180c:	648c                	ld	a1,8(s1)
    8000180e:	05093503          	ld	a0,80(s2)
    80001812:	fffff097          	auipc	ra,0xfffff
    80001816:	ef6080e7          	jalr	-266(ra) # 80000708 <uvmunmap>
      memset(&p->VMAs[i], 0, sizeof(struct VMA)); 
    8000181a:	02800613          	li	a2,40
    8000181e:	4581                	li	a1,0
    80001820:	8526                	mv	a0,s1
    80001822:	fffff097          	auipc	ra,0xfffff
    80001826:	958080e7          	jalr	-1704(ra) # 8000017a <memset>
    8000182a:	bfc9                	j	800017fc <exit+0x26>
  if(p == initproc)
    8000182c:	00007797          	auipc	a5,0x7
    80001830:	7e47b783          	ld	a5,2020(a5) # 80009010 <initproc>
    80001834:	0d090493          	addi	s1,s2,208
    80001838:	15090993          	addi	s3,s2,336
    8000183c:	01279d63          	bne	a5,s2,80001856 <exit+0x80>
    panic("init exiting");
    80001840:	00007517          	auipc	a0,0x7
    80001844:	98850513          	addi	a0,a0,-1656 # 800081c8 <etext+0x1c8>
    80001848:	00004097          	auipc	ra,0x4
    8000184c:	708080e7          	jalr	1800(ra) # 80005f50 <panic>
  for(int fd = 0; fd < NOFILE; fd++){
    80001850:	04a1                	addi	s1,s1,8
    80001852:	01348b63          	beq	s1,s3,80001868 <exit+0x92>
    if(p->ofile[fd]){
    80001856:	6088                	ld	a0,0(s1)
    80001858:	dd65                	beqz	a0,80001850 <exit+0x7a>
      fileclose(f);
    8000185a:	00002097          	auipc	ra,0x2
    8000185e:	526080e7          	jalr	1318(ra) # 80003d80 <fileclose>
      p->ofile[fd] = 0;
    80001862:	0004b023          	sd	zero,0(s1)
    80001866:	b7ed                	j	80001850 <exit+0x7a>
  begin_op();
    80001868:	00002097          	auipc	ra,0x2
    8000186c:	050080e7          	jalr	80(ra) # 800038b8 <begin_op>
  iput(p->cwd);
    80001870:	15093503          	ld	a0,336(s2)
    80001874:	00002097          	auipc	ra,0x2
    80001878:	822080e7          	jalr	-2014(ra) # 80003096 <iput>
  end_op();
    8000187c:	00002097          	auipc	ra,0x2
    80001880:	0ba080e7          	jalr	186(ra) # 80003936 <end_op>
  p->cwd = 0;
    80001884:	14093823          	sd	zero,336(s2)
  acquire(&wait_lock);
    80001888:	00007497          	auipc	s1,0x7
    8000188c:	7e048493          	addi	s1,s1,2016 # 80009068 <wait_lock>
    80001890:	8526                	mv	a0,s1
    80001892:	00005097          	auipc	ra,0x5
    80001896:	bf6080e7          	jalr	-1034(ra) # 80006488 <acquire>
  reparent(p);
    8000189a:	854a                	mv	a0,s2
    8000189c:	00000097          	auipc	ra,0x0
    800018a0:	ee0080e7          	jalr	-288(ra) # 8000177c <reparent>
  wakeup(p->parent);
    800018a4:	03893503          	ld	a0,56(s2)
    800018a8:	00000097          	auipc	ra,0x0
    800018ac:	e5e080e7          	jalr	-418(ra) # 80001706 <wakeup>
  acquire(&p->lock);
    800018b0:	854a                	mv	a0,s2
    800018b2:	00005097          	auipc	ra,0x5
    800018b6:	bd6080e7          	jalr	-1066(ra) # 80006488 <acquire>
  p->xstate = status;
    800018ba:	03492623          	sw	s4,44(s2)
  p->state = ZOMBIE;
    800018be:	4795                	li	a5,5
    800018c0:	00f92c23          	sw	a5,24(s2)
  release(&wait_lock);
    800018c4:	8526                	mv	a0,s1
    800018c6:	00005097          	auipc	ra,0x5
    800018ca:	c76080e7          	jalr	-906(ra) # 8000653c <release>
  sched();
    800018ce:	00000097          	auipc	ra,0x0
    800018d2:	b9a080e7          	jalr	-1126(ra) # 80001468 <sched>
  panic("zombie exit");
    800018d6:	00007517          	auipc	a0,0x7
    800018da:	90250513          	addi	a0,a0,-1790 # 800081d8 <etext+0x1d8>
    800018de:	00004097          	auipc	ra,0x4
    800018e2:	672080e7          	jalr	1650(ra) # 80005f50 <panic>

00000000800018e6 <kill>:
// Kill the process with the given pid.
// The victim won't exit until it tries to return
// to user space (see usertrap() in trap.c).
int
kill(int pid)
{
    800018e6:	7179                	addi	sp,sp,-48
    800018e8:	f406                	sd	ra,40(sp)
    800018ea:	f022                	sd	s0,32(sp)
    800018ec:	ec26                	sd	s1,24(sp)
    800018ee:	e84a                	sd	s2,16(sp)
    800018f0:	e44e                	sd	s3,8(sp)
    800018f2:	1800                	addi	s0,sp,48
    800018f4:	892a                	mv	s2,a0
  struct proc *p;

  for(p = proc; p < &proc[NPROC]; p++){
    800018f6:	00008497          	auipc	s1,0x8
    800018fa:	b8a48493          	addi	s1,s1,-1142 # 80009480 <proc>
    800018fe:	00017997          	auipc	s3,0x17
    80001902:	78298993          	addi	s3,s3,1922 # 80019080 <tickslock>
    acquire(&p->lock);
    80001906:	8526                	mv	a0,s1
    80001908:	00005097          	auipc	ra,0x5
    8000190c:	b80080e7          	jalr	-1152(ra) # 80006488 <acquire>
    if(p->pid == pid){
    80001910:	589c                	lw	a5,48(s1)
    80001912:	01278d63          	beq	a5,s2,8000192c <kill+0x46>
        p->state = RUNNABLE;
      }
      release(&p->lock);
      return 0;
    }
    release(&p->lock);
    80001916:	8526                	mv	a0,s1
    80001918:	00005097          	auipc	ra,0x5
    8000191c:	c24080e7          	jalr	-988(ra) # 8000653c <release>
  for(p = proc; p < &proc[NPROC]; p++){
    80001920:	3f048493          	addi	s1,s1,1008
    80001924:	ff3491e3          	bne	s1,s3,80001906 <kill+0x20>
  }
  return -1;
    80001928:	557d                	li	a0,-1
    8000192a:	a829                	j	80001944 <kill+0x5e>
      p->killed = 1;
    8000192c:	4785                	li	a5,1
    8000192e:	d49c                	sw	a5,40(s1)
      if(p->state == SLEEPING){
    80001930:	4c98                	lw	a4,24(s1)
    80001932:	4789                	li	a5,2
    80001934:	00f70f63          	beq	a4,a5,80001952 <kill+0x6c>
      release(&p->lock);
    80001938:	8526                	mv	a0,s1
    8000193a:	00005097          	auipc	ra,0x5
    8000193e:	c02080e7          	jalr	-1022(ra) # 8000653c <release>
      return 0;
    80001942:	4501                	li	a0,0
}
    80001944:	70a2                	ld	ra,40(sp)
    80001946:	7402                	ld	s0,32(sp)
    80001948:	64e2                	ld	s1,24(sp)
    8000194a:	6942                	ld	s2,16(sp)
    8000194c:	69a2                	ld	s3,8(sp)
    8000194e:	6145                	addi	sp,sp,48
    80001950:	8082                	ret
        p->state = RUNNABLE;
    80001952:	478d                	li	a5,3
    80001954:	cc9c                	sw	a5,24(s1)
    80001956:	b7cd                	j	80001938 <kill+0x52>

0000000080001958 <either_copyout>:
// Copy to either a user address, or kernel address,
// depending on usr_dst.
// Returns 0 on success, -1 on error.
int
either_copyout(int user_dst, uint64 dst, void *src, uint64 len)
{
    80001958:	7179                	addi	sp,sp,-48
    8000195a:	f406                	sd	ra,40(sp)
    8000195c:	f022                	sd	s0,32(sp)
    8000195e:	ec26                	sd	s1,24(sp)
    80001960:	e84a                	sd	s2,16(sp)
    80001962:	e44e                	sd	s3,8(sp)
    80001964:	e052                	sd	s4,0(sp)
    80001966:	1800                	addi	s0,sp,48
    80001968:	84aa                	mv	s1,a0
    8000196a:	892e                	mv	s2,a1
    8000196c:	89b2                	mv	s3,a2
    8000196e:	8a36                	mv	s4,a3
  struct proc *p = myproc();
    80001970:	fffff097          	auipc	ra,0xfffff
    80001974:	4fc080e7          	jalr	1276(ra) # 80000e6c <myproc>
  if(user_dst){
    80001978:	c08d                	beqz	s1,8000199a <either_copyout+0x42>
    return copyout(p->pagetable, dst, src, len);
    8000197a:	86d2                	mv	a3,s4
    8000197c:	864e                	mv	a2,s3
    8000197e:	85ca                	mv	a1,s2
    80001980:	6928                	ld	a0,80(a0)
    80001982:	fffff097          	auipc	ra,0xfffff
    80001986:	178080e7          	jalr	376(ra) # 80000afa <copyout>
  } else {
    memmove((char *)dst, src, len);
    return 0;
  }
}
    8000198a:	70a2                	ld	ra,40(sp)
    8000198c:	7402                	ld	s0,32(sp)
    8000198e:	64e2                	ld	s1,24(sp)
    80001990:	6942                	ld	s2,16(sp)
    80001992:	69a2                	ld	s3,8(sp)
    80001994:	6a02                	ld	s4,0(sp)
    80001996:	6145                	addi	sp,sp,48
    80001998:	8082                	ret
    memmove((char *)dst, src, len);
    8000199a:	000a061b          	sext.w	a2,s4
    8000199e:	85ce                	mv	a1,s3
    800019a0:	854a                	mv	a0,s2
    800019a2:	fffff097          	auipc	ra,0xfffff
    800019a6:	834080e7          	jalr	-1996(ra) # 800001d6 <memmove>
    return 0;
    800019aa:	8526                	mv	a0,s1
    800019ac:	bff9                	j	8000198a <either_copyout+0x32>

00000000800019ae <either_copyin>:
// Copy from either a user address, or kernel address,
// depending on usr_src.
// Returns 0 on success, -1 on error.
int
either_copyin(void *dst, int user_src, uint64 src, uint64 len)
{
    800019ae:	7179                	addi	sp,sp,-48
    800019b0:	f406                	sd	ra,40(sp)
    800019b2:	f022                	sd	s0,32(sp)
    800019b4:	ec26                	sd	s1,24(sp)
    800019b6:	e84a                	sd	s2,16(sp)
    800019b8:	e44e                	sd	s3,8(sp)
    800019ba:	e052                	sd	s4,0(sp)
    800019bc:	1800                	addi	s0,sp,48
    800019be:	892a                	mv	s2,a0
    800019c0:	84ae                	mv	s1,a1
    800019c2:	89b2                	mv	s3,a2
    800019c4:	8a36                	mv	s4,a3
  struct proc *p = myproc();
    800019c6:	fffff097          	auipc	ra,0xfffff
    800019ca:	4a6080e7          	jalr	1190(ra) # 80000e6c <myproc>
  if(user_src){
    800019ce:	c08d                	beqz	s1,800019f0 <either_copyin+0x42>
    return copyin(p->pagetable, dst, src, len);
    800019d0:	86d2                	mv	a3,s4
    800019d2:	864e                	mv	a2,s3
    800019d4:	85ca                	mv	a1,s2
    800019d6:	6928                	ld	a0,80(a0)
    800019d8:	fffff097          	auipc	ra,0xfffff
    800019dc:	1ae080e7          	jalr	430(ra) # 80000b86 <copyin>
  } else {
    memmove(dst, (char*)src, len);
    return 0;
  }
}
    800019e0:	70a2                	ld	ra,40(sp)
    800019e2:	7402                	ld	s0,32(sp)
    800019e4:	64e2                	ld	s1,24(sp)
    800019e6:	6942                	ld	s2,16(sp)
    800019e8:	69a2                	ld	s3,8(sp)
    800019ea:	6a02                	ld	s4,0(sp)
    800019ec:	6145                	addi	sp,sp,48
    800019ee:	8082                	ret
    memmove(dst, (char*)src, len);
    800019f0:	000a061b          	sext.w	a2,s4
    800019f4:	85ce                	mv	a1,s3
    800019f6:	854a                	mv	a0,s2
    800019f8:	ffffe097          	auipc	ra,0xffffe
    800019fc:	7de080e7          	jalr	2014(ra) # 800001d6 <memmove>
    return 0;
    80001a00:	8526                	mv	a0,s1
    80001a02:	bff9                	j	800019e0 <either_copyin+0x32>

0000000080001a04 <procdump>:
// Print a process listing to console.  For debugging.
// Runs when user types ^P on console.
// No lock to avoid wedging a stuck machine further.
void
procdump(void)
{
    80001a04:	715d                	addi	sp,sp,-80
    80001a06:	e486                	sd	ra,72(sp)
    80001a08:	e0a2                	sd	s0,64(sp)
    80001a0a:	fc26                	sd	s1,56(sp)
    80001a0c:	f84a                	sd	s2,48(sp)
    80001a0e:	f44e                	sd	s3,40(sp)
    80001a10:	f052                	sd	s4,32(sp)
    80001a12:	ec56                	sd	s5,24(sp)
    80001a14:	e85a                	sd	s6,16(sp)
    80001a16:	e45e                	sd	s7,8(sp)
    80001a18:	0880                	addi	s0,sp,80
  [ZOMBIE]    "zombie"
  };
  struct proc *p;
  char *state;

  printf("\n");
    80001a1a:	00006517          	auipc	a0,0x6
    80001a1e:	62e50513          	addi	a0,a0,1582 # 80008048 <etext+0x48>
    80001a22:	00004097          	auipc	ra,0x4
    80001a26:	578080e7          	jalr	1400(ra) # 80005f9a <printf>
  for(p = proc; p < &proc[NPROC]; p++){
    80001a2a:	00008497          	auipc	s1,0x8
    80001a2e:	bae48493          	addi	s1,s1,-1106 # 800095d8 <proc+0x158>
    80001a32:	00017917          	auipc	s2,0x17
    80001a36:	7a690913          	addi	s2,s2,1958 # 800191d8 <bcache+0x140>
    if(p->state == UNUSED)
      continue;
    if(p->state >= 0 && p->state < NELEM(states) && states[p->state])
    80001a3a:	4b15                	li	s6,5
      state = states[p->state];
    else
      state = "???";
    80001a3c:	00006997          	auipc	s3,0x6
    80001a40:	7ac98993          	addi	s3,s3,1964 # 800081e8 <etext+0x1e8>
    printf("%d %s %s", p->pid, state, p->name);
    80001a44:	00006a97          	auipc	s5,0x6
    80001a48:	7aca8a93          	addi	s5,s5,1964 # 800081f0 <etext+0x1f0>
    printf("\n");
    80001a4c:	00006a17          	auipc	s4,0x6
    80001a50:	5fca0a13          	addi	s4,s4,1532 # 80008048 <etext+0x48>
    if(p->state >= 0 && p->state < NELEM(states) && states[p->state])
    80001a54:	00006b97          	auipc	s7,0x6
    80001a58:	7d4b8b93          	addi	s7,s7,2004 # 80008228 <states.0>
    80001a5c:	a00d                	j	80001a7e <procdump+0x7a>
    printf("%d %s %s", p->pid, state, p->name);
    80001a5e:	ed86a583          	lw	a1,-296(a3)
    80001a62:	8556                	mv	a0,s5
    80001a64:	00004097          	auipc	ra,0x4
    80001a68:	536080e7          	jalr	1334(ra) # 80005f9a <printf>
    printf("\n");
    80001a6c:	8552                	mv	a0,s4
    80001a6e:	00004097          	auipc	ra,0x4
    80001a72:	52c080e7          	jalr	1324(ra) # 80005f9a <printf>
  for(p = proc; p < &proc[NPROC]; p++){
    80001a76:	3f048493          	addi	s1,s1,1008
    80001a7a:	03248263          	beq	s1,s2,80001a9e <procdump+0x9a>
    if(p->state == UNUSED)
    80001a7e:	86a6                	mv	a3,s1
    80001a80:	ec04a783          	lw	a5,-320(s1)
    80001a84:	dbed                	beqz	a5,80001a76 <procdump+0x72>
      state = "???";
    80001a86:	864e                	mv	a2,s3
    if(p->state >= 0 && p->state < NELEM(states) && states[p->state])
    80001a88:	fcfb6be3          	bltu	s6,a5,80001a5e <procdump+0x5a>
    80001a8c:	02079713          	slli	a4,a5,0x20
    80001a90:	01d75793          	srli	a5,a4,0x1d
    80001a94:	97de                	add	a5,a5,s7
    80001a96:	6390                	ld	a2,0(a5)
    80001a98:	f279                	bnez	a2,80001a5e <procdump+0x5a>
      state = "???";
    80001a9a:	864e                	mv	a2,s3
    80001a9c:	b7c9                	j	80001a5e <procdump+0x5a>
  }
}
    80001a9e:	60a6                	ld	ra,72(sp)
    80001aa0:	6406                	ld	s0,64(sp)
    80001aa2:	74e2                	ld	s1,56(sp)
    80001aa4:	7942                	ld	s2,48(sp)
    80001aa6:	79a2                	ld	s3,40(sp)
    80001aa8:	7a02                	ld	s4,32(sp)
    80001aaa:	6ae2                	ld	s5,24(sp)
    80001aac:	6b42                	ld	s6,16(sp)
    80001aae:	6ba2                	ld	s7,8(sp)
    80001ab0:	6161                	addi	sp,sp,80
    80001ab2:	8082                	ret

0000000080001ab4 <swtch>:
    80001ab4:	00153023          	sd	ra,0(a0)
    80001ab8:	00253423          	sd	sp,8(a0)
    80001abc:	e900                	sd	s0,16(a0)
    80001abe:	ed04                	sd	s1,24(a0)
    80001ac0:	03253023          	sd	s2,32(a0)
    80001ac4:	03353423          	sd	s3,40(a0)
    80001ac8:	03453823          	sd	s4,48(a0)
    80001acc:	03553c23          	sd	s5,56(a0)
    80001ad0:	05653023          	sd	s6,64(a0)
    80001ad4:	05753423          	sd	s7,72(a0)
    80001ad8:	05853823          	sd	s8,80(a0)
    80001adc:	05953c23          	sd	s9,88(a0)
    80001ae0:	07a53023          	sd	s10,96(a0)
    80001ae4:	07b53423          	sd	s11,104(a0)
    80001ae8:	0005b083          	ld	ra,0(a1)
    80001aec:	0085b103          	ld	sp,8(a1)
    80001af0:	6980                	ld	s0,16(a1)
    80001af2:	6d84                	ld	s1,24(a1)
    80001af4:	0205b903          	ld	s2,32(a1)
    80001af8:	0285b983          	ld	s3,40(a1)
    80001afc:	0305ba03          	ld	s4,48(a1)
    80001b00:	0385ba83          	ld	s5,56(a1)
    80001b04:	0405bb03          	ld	s6,64(a1)
    80001b08:	0485bb83          	ld	s7,72(a1)
    80001b0c:	0505bc03          	ld	s8,80(a1)
    80001b10:	0585bc83          	ld	s9,88(a1)
    80001b14:	0605bd03          	ld	s10,96(a1)
    80001b18:	0685bd83          	ld	s11,104(a1)
    80001b1c:	8082                	ret

0000000080001b1e <trapinit>:

extern int devintr();

void
trapinit(void)
{
    80001b1e:	1141                	addi	sp,sp,-16
    80001b20:	e406                	sd	ra,8(sp)
    80001b22:	e022                	sd	s0,0(sp)
    80001b24:	0800                	addi	s0,sp,16
  initlock(&tickslock, "time");
    80001b26:	00006597          	auipc	a1,0x6
    80001b2a:	73258593          	addi	a1,a1,1842 # 80008258 <states.0+0x30>
    80001b2e:	00017517          	auipc	a0,0x17
    80001b32:	55250513          	addi	a0,a0,1362 # 80019080 <tickslock>
    80001b36:	00005097          	auipc	ra,0x5
    80001b3a:	8c2080e7          	jalr	-1854(ra) # 800063f8 <initlock>
}
    80001b3e:	60a2                	ld	ra,8(sp)
    80001b40:	6402                	ld	s0,0(sp)
    80001b42:	0141                	addi	sp,sp,16
    80001b44:	8082                	ret

0000000080001b46 <trapinithart>:

// set up to take exceptions and traps while in the kernel.
void
trapinithart(void)
{
    80001b46:	1141                	addi	sp,sp,-16
    80001b48:	e422                	sd	s0,8(sp)
    80001b4a:	0800                	addi	s0,sp,16
  asm volatile("csrw stvec, %0" : : "r" (x));
    80001b4c:	00004797          	auipc	a5,0x4
    80001b50:	86478793          	addi	a5,a5,-1948 # 800053b0 <kernelvec>
    80001b54:	10579073          	csrw	stvec,a5
  w_stvec((uint64)kernelvec);
}
    80001b58:	6422                	ld	s0,8(sp)
    80001b5a:	0141                	addi	sp,sp,16
    80001b5c:	8082                	ret

0000000080001b5e <usertrapret>:
//
// return to user space
//
void
usertrapret(void)
{
    80001b5e:	1141                	addi	sp,sp,-16
    80001b60:	e406                	sd	ra,8(sp)
    80001b62:	e022                	sd	s0,0(sp)
    80001b64:	0800                	addi	s0,sp,16
  struct proc *p = myproc();
    80001b66:	fffff097          	auipc	ra,0xfffff
    80001b6a:	306080e7          	jalr	774(ra) # 80000e6c <myproc>
  asm volatile("csrr %0, sstatus" : "=r" (x) );
    80001b6e:	100027f3          	csrr	a5,sstatus
  w_sstatus(r_sstatus() & ~SSTATUS_SIE);
    80001b72:	9bf5                	andi	a5,a5,-3
  asm volatile("csrw sstatus, %0" : : "r" (x));
    80001b74:	10079073          	csrw	sstatus,a5
  // kerneltrap() to usertrap(), so turn off interrupts until
  // we're back in user space, where usertrap() is correct.
  intr_off();

  // send syscalls, interrupts, and exceptions to trampoline.S
  w_stvec(TRAMPOLINE + (uservec - trampoline));
    80001b78:	00005697          	auipc	a3,0x5
    80001b7c:	48868693          	addi	a3,a3,1160 # 80007000 <_trampoline>
    80001b80:	00005717          	auipc	a4,0x5
    80001b84:	48070713          	addi	a4,a4,1152 # 80007000 <_trampoline>
    80001b88:	8f15                	sub	a4,a4,a3
    80001b8a:	040007b7          	lui	a5,0x4000
    80001b8e:	17fd                	addi	a5,a5,-1 # 3ffffff <_entry-0x7c000001>
    80001b90:	07b2                	slli	a5,a5,0xc
    80001b92:	973e                	add	a4,a4,a5
  asm volatile("csrw stvec, %0" : : "r" (x));
    80001b94:	10571073          	csrw	stvec,a4

  // set up trapframe values that uservec will need when
  // the process next re-enters the kernel.
  p->trapframe->kernel_satp = r_satp();         // kernel page table
    80001b98:	6d38                	ld	a4,88(a0)
  asm volatile("csrr %0, satp" : "=r" (x) );
    80001b9a:	18002673          	csrr	a2,satp
    80001b9e:	e310                	sd	a2,0(a4)
  p->trapframe->kernel_sp = p->kstack + PGSIZE; // process's kernel stack
    80001ba0:	6d30                	ld	a2,88(a0)
    80001ba2:	6138                	ld	a4,64(a0)
    80001ba4:	6585                	lui	a1,0x1
    80001ba6:	972e                	add	a4,a4,a1
    80001ba8:	e618                	sd	a4,8(a2)
  p->trapframe->kernel_trap = (uint64)usertrap;
    80001baa:	6d38                	ld	a4,88(a0)
    80001bac:	00000617          	auipc	a2,0x0
    80001bb0:	13860613          	addi	a2,a2,312 # 80001ce4 <usertrap>
    80001bb4:	eb10                	sd	a2,16(a4)
  p->trapframe->kernel_hartid = r_tp();         // hartid for cpuid()
    80001bb6:	6d38                	ld	a4,88(a0)
  asm volatile("mv %0, tp" : "=r" (x) );
    80001bb8:	8612                	mv	a2,tp
    80001bba:	f310                	sd	a2,32(a4)
  asm volatile("csrr %0, sstatus" : "=r" (x) );
    80001bbc:	10002773          	csrr	a4,sstatus
  // set up the registers that trampoline.S's sret will use
  // to get to user space.
  
  // set S Previous Privilege mode to User.
  unsigned long x = r_sstatus();
  x &= ~SSTATUS_SPP; // clear SPP to 0 for user mode
    80001bc0:	eff77713          	andi	a4,a4,-257
  x |= SSTATUS_SPIE; // enable interrupts in user mode
    80001bc4:	02076713          	ori	a4,a4,32
  asm volatile("csrw sstatus, %0" : : "r" (x));
    80001bc8:	10071073          	csrw	sstatus,a4
  w_sstatus(x);

  // set S Exception Program Counter to the saved user pc.
  w_sepc(p->trapframe->epc);
    80001bcc:	6d38                	ld	a4,88(a0)
  asm volatile("csrw sepc, %0" : : "r" (x));
    80001bce:	6f18                	ld	a4,24(a4)
    80001bd0:	14171073          	csrw	sepc,a4

  // tell trampoline.S the user page table to switch to.
  uint64 satp = MAKE_SATP(p->pagetable);
    80001bd4:	692c                	ld	a1,80(a0)
    80001bd6:	81b1                	srli	a1,a1,0xc

  // jump to trampoline.S at the top of memory, which 
  // switches to the user page table, restores user registers,
  // and switches to user mode with sret.
  uint64 fn = TRAMPOLINE + (userret - trampoline);
    80001bd8:	00005717          	auipc	a4,0x5
    80001bdc:	4b870713          	addi	a4,a4,1208 # 80007090 <userret>
    80001be0:	8f15                	sub	a4,a4,a3
    80001be2:	97ba                	add	a5,a5,a4
  ((void (*)(uint64,uint64))fn)(TRAPFRAME, satp);
    80001be4:	577d                	li	a4,-1
    80001be6:	177e                	slli	a4,a4,0x3f
    80001be8:	8dd9                	or	a1,a1,a4
    80001bea:	02000537          	lui	a0,0x2000
    80001bee:	157d                	addi	a0,a0,-1 # 1ffffff <_entry-0x7e000001>
    80001bf0:	0536                	slli	a0,a0,0xd
    80001bf2:	9782                	jalr	a5
}
    80001bf4:	60a2                	ld	ra,8(sp)
    80001bf6:	6402                	ld	s0,0(sp)
    80001bf8:	0141                	addi	sp,sp,16
    80001bfa:	8082                	ret

0000000080001bfc <clockintr>:
  w_sstatus(sstatus);
}

void
clockintr()
{
    80001bfc:	1101                	addi	sp,sp,-32
    80001bfe:	ec06                	sd	ra,24(sp)
    80001c00:	e822                	sd	s0,16(sp)
    80001c02:	e426                	sd	s1,8(sp)
    80001c04:	1000                	addi	s0,sp,32
  acquire(&tickslock);
    80001c06:	00017497          	auipc	s1,0x17
    80001c0a:	47a48493          	addi	s1,s1,1146 # 80019080 <tickslock>
    80001c0e:	8526                	mv	a0,s1
    80001c10:	00005097          	auipc	ra,0x5
    80001c14:	878080e7          	jalr	-1928(ra) # 80006488 <acquire>
  ticks++;
    80001c18:	00007517          	auipc	a0,0x7
    80001c1c:	40050513          	addi	a0,a0,1024 # 80009018 <ticks>
    80001c20:	411c                	lw	a5,0(a0)
    80001c22:	2785                	addiw	a5,a5,1
    80001c24:	c11c                	sw	a5,0(a0)
  wakeup(&ticks);
    80001c26:	00000097          	auipc	ra,0x0
    80001c2a:	ae0080e7          	jalr	-1312(ra) # 80001706 <wakeup>
  release(&tickslock);
    80001c2e:	8526                	mv	a0,s1
    80001c30:	00005097          	auipc	ra,0x5
    80001c34:	90c080e7          	jalr	-1780(ra) # 8000653c <release>
}
    80001c38:	60e2                	ld	ra,24(sp)
    80001c3a:	6442                	ld	s0,16(sp)
    80001c3c:	64a2                	ld	s1,8(sp)
    80001c3e:	6105                	addi	sp,sp,32
    80001c40:	8082                	ret

0000000080001c42 <devintr>:
// returns 2 if timer interrupt,
// 1 if other device,
// 0 if not recognized.
int
devintr()
{
    80001c42:	1101                	addi	sp,sp,-32
    80001c44:	ec06                	sd	ra,24(sp)
    80001c46:	e822                	sd	s0,16(sp)
    80001c48:	e426                	sd	s1,8(sp)
    80001c4a:	1000                	addi	s0,sp,32
  asm volatile("csrr %0, scause" : "=r" (x) );
    80001c4c:	14202773          	csrr	a4,scause
  uint64 scause = r_scause();

  if((scause & 0x8000000000000000L) &&
    80001c50:	00074d63          	bltz	a4,80001c6a <devintr+0x28>
    // now allowed to interrupt again.
    if(irq)
      plic_complete(irq);

    return 1;
  } else if(scause == 0x8000000000000001L){
    80001c54:	57fd                	li	a5,-1
    80001c56:	17fe                	slli	a5,a5,0x3f
    80001c58:	0785                	addi	a5,a5,1
    // the SSIP bit in sip.
    w_sip(r_sip() & ~2);

    return 2;
  } else {
    return 0;
    80001c5a:	4501                	li	a0,0
  } else if(scause == 0x8000000000000001L){
    80001c5c:	06f70363          	beq	a4,a5,80001cc2 <devintr+0x80>
  }
}
    80001c60:	60e2                	ld	ra,24(sp)
    80001c62:	6442                	ld	s0,16(sp)
    80001c64:	64a2                	ld	s1,8(sp)
    80001c66:	6105                	addi	sp,sp,32
    80001c68:	8082                	ret
     (scause & 0xff) == 9){
    80001c6a:	0ff77793          	zext.b	a5,a4
  if((scause & 0x8000000000000000L) &&
    80001c6e:	46a5                	li	a3,9
    80001c70:	fed792e3          	bne	a5,a3,80001c54 <devintr+0x12>
    int irq = plic_claim();
    80001c74:	00004097          	auipc	ra,0x4
    80001c78:	844080e7          	jalr	-1980(ra) # 800054b8 <plic_claim>
    80001c7c:	84aa                	mv	s1,a0
    if(irq == UART0_IRQ){
    80001c7e:	47a9                	li	a5,10
    80001c80:	02f50763          	beq	a0,a5,80001cae <devintr+0x6c>
    } else if(irq == VIRTIO0_IRQ){
    80001c84:	4785                	li	a5,1
    80001c86:	02f50963          	beq	a0,a5,80001cb8 <devintr+0x76>
    return 1;
    80001c8a:	4505                	li	a0,1
    } else if(irq){
    80001c8c:	d8f1                	beqz	s1,80001c60 <devintr+0x1e>
      printf("unexpected interrupt irq=%d\n", irq);
    80001c8e:	85a6                	mv	a1,s1
    80001c90:	00006517          	auipc	a0,0x6
    80001c94:	5d050513          	addi	a0,a0,1488 # 80008260 <states.0+0x38>
    80001c98:	00004097          	auipc	ra,0x4
    80001c9c:	302080e7          	jalr	770(ra) # 80005f9a <printf>
      plic_complete(irq);
    80001ca0:	8526                	mv	a0,s1
    80001ca2:	00004097          	auipc	ra,0x4
    80001ca6:	83a080e7          	jalr	-1990(ra) # 800054dc <plic_complete>
    return 1;
    80001caa:	4505                	li	a0,1
    80001cac:	bf55                	j	80001c60 <devintr+0x1e>
      uartintr();
    80001cae:	00004097          	auipc	ra,0x4
    80001cb2:	6fa080e7          	jalr	1786(ra) # 800063a8 <uartintr>
    80001cb6:	b7ed                	j	80001ca0 <devintr+0x5e>
      virtio_disk_intr();
    80001cb8:	00004097          	auipc	ra,0x4
    80001cbc:	cb0080e7          	jalr	-848(ra) # 80005968 <virtio_disk_intr>
    80001cc0:	b7c5                	j	80001ca0 <devintr+0x5e>
    if(cpuid() == 0){
    80001cc2:	fffff097          	auipc	ra,0xfffff
    80001cc6:	17e080e7          	jalr	382(ra) # 80000e40 <cpuid>
    80001cca:	c901                	beqz	a0,80001cda <devintr+0x98>
  asm volatile("csrr %0, sip" : "=r" (x) );
    80001ccc:	144027f3          	csrr	a5,sip
    w_sip(r_sip() & ~2);
    80001cd0:	9bf5                	andi	a5,a5,-3
  asm volatile("csrw sip, %0" : : "r" (x));
    80001cd2:	14479073          	csrw	sip,a5
    return 2;
    80001cd6:	4509                	li	a0,2
    80001cd8:	b761                	j	80001c60 <devintr+0x1e>
      clockintr();
    80001cda:	00000097          	auipc	ra,0x0
    80001cde:	f22080e7          	jalr	-222(ra) # 80001bfc <clockintr>
    80001ce2:	b7ed                	j	80001ccc <devintr+0x8a>

0000000080001ce4 <usertrap>:
{
    80001ce4:	7179                	addi	sp,sp,-48
    80001ce6:	f406                	sd	ra,40(sp)
    80001ce8:	f022                	sd	s0,32(sp)
    80001cea:	ec26                	sd	s1,24(sp)
    80001cec:	e84a                	sd	s2,16(sp)
    80001cee:	e44e                	sd	s3,8(sp)
    80001cf0:	e052                	sd	s4,0(sp)
    80001cf2:	1800                	addi	s0,sp,48
  asm volatile("csrr %0, sstatus" : "=r" (x) );
    80001cf4:	100027f3          	csrr	a5,sstatus
  if((r_sstatus() & SSTATUS_SPP) != 0)
    80001cf8:	1007f793          	andi	a5,a5,256
    80001cfc:	e7b5                	bnez	a5,80001d68 <usertrap+0x84>
  asm volatile("csrw stvec, %0" : : "r" (x));
    80001cfe:	00003797          	auipc	a5,0x3
    80001d02:	6b278793          	addi	a5,a5,1714 # 800053b0 <kernelvec>
    80001d06:	10579073          	csrw	stvec,a5
  struct proc *p = myproc();
    80001d0a:	fffff097          	auipc	ra,0xfffff
    80001d0e:	162080e7          	jalr	354(ra) # 80000e6c <myproc>
    80001d12:	892a                	mv	s2,a0
  p->trapframe->epc = r_sepc();
    80001d14:	6d3c                	ld	a5,88(a0)
  asm volatile("csrr %0, sepc" : "=r" (x) );
    80001d16:	14102773          	csrr	a4,sepc
    80001d1a:	ef98                	sd	a4,24(a5)
  asm volatile("csrr %0, scause" : "=r" (x) );
    80001d1c:	14202773          	csrr	a4,scause
  if(r_scause() == 8){
    80001d20:	47a1                	li	a5,8
    80001d22:	06f71163          	bne	a4,a5,80001d84 <usertrap+0xa0>
    if(p->killed)
    80001d26:	551c                	lw	a5,40(a0)
    80001d28:	eba1                	bnez	a5,80001d78 <usertrap+0x94>
    p->trapframe->epc += 4;
    80001d2a:	05893703          	ld	a4,88(s2)
    80001d2e:	6f1c                	ld	a5,24(a4)
    80001d30:	0791                	addi	a5,a5,4
    80001d32:	ef1c                	sd	a5,24(a4)
  asm volatile("csrr %0, sstatus" : "=r" (x) );
    80001d34:	100027f3          	csrr	a5,sstatus
  w_sstatus(r_sstatus() | SSTATUS_SIE);
    80001d38:	0027e793          	ori	a5,a5,2
  asm volatile("csrw sstatus, %0" : : "r" (x));
    80001d3c:	10079073          	csrw	sstatus,a5
    syscall();
    80001d40:	00000097          	auipc	ra,0x0
    80001d44:	41a080e7          	jalr	1050(ra) # 8000215a <syscall>
  if(p->killed)
    80001d48:	02892783          	lw	a5,40(s2)
    80001d4c:	1a079863          	bnez	a5,80001efc <usertrap+0x218>
  usertrapret();
    80001d50:	00000097          	auipc	ra,0x0
    80001d54:	e0e080e7          	jalr	-498(ra) # 80001b5e <usertrapret>
}
    80001d58:	70a2                	ld	ra,40(sp)
    80001d5a:	7402                	ld	s0,32(sp)
    80001d5c:	64e2                	ld	s1,24(sp)
    80001d5e:	6942                	ld	s2,16(sp)
    80001d60:	69a2                	ld	s3,8(sp)
    80001d62:	6a02                	ld	s4,0(sp)
    80001d64:	6145                	addi	sp,sp,48
    80001d66:	8082                	ret
    panic("usertrap: not from user mode");
    80001d68:	00006517          	auipc	a0,0x6
    80001d6c:	51850513          	addi	a0,a0,1304 # 80008280 <states.0+0x58>
    80001d70:	00004097          	auipc	ra,0x4
    80001d74:	1e0080e7          	jalr	480(ra) # 80005f50 <panic>
      exit(-1);
    80001d78:	557d                	li	a0,-1
    80001d7a:	00000097          	auipc	ra,0x0
    80001d7e:	a5c080e7          	jalr	-1444(ra) # 800017d6 <exit>
    80001d82:	b765                	j	80001d2a <usertrap+0x46>
  } else if((which_dev = devintr()) != 0){
    80001d84:	00000097          	auipc	ra,0x0
    80001d88:	ebe080e7          	jalr	-322(ra) # 80001c42 <devintr>
    80001d8c:	84aa                	mv	s1,a0
    80001d8e:	16051363          	bnez	a0,80001ef4 <usertrap+0x210>
  asm volatile("csrr %0, scause" : "=r" (x) );
    80001d92:	14202773          	csrr	a4,scause
  } else if (r_scause() == 12 || r_scause() == 13 || r_scause() == 15) {
    80001d96:	47b1                	li	a5,12
    80001d98:	00f70c63          	beq	a4,a5,80001db0 <usertrap+0xcc>
    80001d9c:	14202773          	csrr	a4,scause
    80001da0:	47b5                	li	a5,13
    80001da2:	00f70763          	beq	a4,a5,80001db0 <usertrap+0xcc>
    80001da6:	14202773          	csrr	a4,scause
    80001daa:	47bd                	li	a5,15
    80001dac:	10f71863          	bne	a4,a5,80001ebc <usertrap+0x1d8>
  asm volatile("csrr %0, stval" : "=r" (x) );
    80001db0:	143029f3          	csrr	s3,stval
    if (fault_va >= MAXVA)
    80001db4:	57fd                	li	a5,-1
    80001db6:	83e9                	srli	a5,a5,0x1a
    80001db8:	0137eb63          	bltu	a5,s3,80001dce <usertrap+0xea>
    if (fault_va < p->trapframe->sp)
    80001dbc:	05893783          	ld	a5,88(s2)
    80001dc0:	7b9c                	ld	a5,48(a5)
    80001dc2:	00f9ec63          	bltu	s3,a5,80001dda <usertrap+0xf6>
    for (int i = 0; i < VMA_SIZE; i++) {
    80001dc6:	17090793          	addi	a5,s2,368
    80001dca:	4641                	li	a2,16
    80001dcc:	a015                	j	80001df0 <usertrap+0x10c>
      exit(-1);
    80001dce:	557d                	li	a0,-1
    80001dd0:	00000097          	auipc	ra,0x0
    80001dd4:	a06080e7          	jalr	-1530(ra) # 800017d6 <exit>
    80001dd8:	b7d5                	j	80001dbc <usertrap+0xd8>
      exit(-1);
    80001dda:	557d                	li	a0,-1
    80001ddc:	00000097          	auipc	ra,0x0
    80001de0:	9fa080e7          	jalr	-1542(ra) # 800017d6 <exit>
    80001de4:	b7cd                	j	80001dc6 <usertrap+0xe2>
    for (int i = 0; i < VMA_SIZE; i++) {
    80001de6:	2485                	addiw	s1,s1,1
    80001de8:	02878793          	addi	a5,a5,40
    80001dec:	02c48363          	beq	s1,a2,80001e12 <usertrap+0x12e>
      if (p->VMAs[i].valid && fault_va >= p->VMAs[i].addr && fault_va <= p->VMAs[i].addr + p->VMAs[i].size) {
    80001df0:	4398                	lw	a4,0(a5)
    80001df2:	db75                	beqz	a4,80001de6 <usertrap+0x102>
    80001df4:	6798                	ld	a4,8(a5)
    80001df6:	fee9e8e3          	bltu	s3,a4,80001de6 <usertrap+0x102>
    80001dfa:	6b94                	ld	a3,16(a5)
    80001dfc:	9736                	add	a4,a4,a3
    80001dfe:	ff3764e3          	bltu	a4,s3,80001de6 <usertrap+0x102>
        vma = &p->VMAs[i];
    80001e02:	00249793          	slli	a5,s1,0x2
    80001e06:	94be                	add	s1,s1,a5
    80001e08:	048e                	slli	s1,s1,0x3
    80001e0a:	17048493          	addi	s1,s1,368
    80001e0e:	94ca                	add	s1,s1,s2
    if (!found) {
    80001e10:	a039                	j	80001e1e <usertrap+0x13a>
      exit(-1);
    80001e12:	557d                	li	a0,-1
    80001e14:	00000097          	auipc	ra,0x0
    80001e18:	9c2080e7          	jalr	-1598(ra) # 800017d6 <exit>
    struct VMA *vma = 0;
    80001e1c:	4481                	li	s1,0
    char *new_pa = kalloc();
    80001e1e:	ffffe097          	auipc	ra,0xffffe
    80001e22:	2fc080e7          	jalr	764(ra) # 8000011a <kalloc>
    80001e26:	8a2a                	mv	s4,a0
    if (new_pa == 0) {
    80001e28:	c92d                	beqz	a0,80001e9a <usertrap+0x1b6>
    memset(new_pa, 0, PGSIZE);
    80001e2a:	6605                	lui	a2,0x1
    80001e2c:	4581                	li	a1,0
    80001e2e:	8552                	mv	a0,s4
    80001e30:	ffffe097          	auipc	ra,0xffffe
    80001e34:	34a080e7          	jalr	842(ra) # 8000017a <memset>
    if (vma->permissions & PROT_READ) {
    80001e38:	4c9c                	lw	a5,24(s1)
    80001e3a:	0017f693          	andi	a3,a5,1
    uint perm = PTE_U;
    80001e3e:	4741                	li	a4,16
    if (vma->permissions & PROT_READ) {
    80001e40:	c291                	beqz	a3,80001e44 <usertrap+0x160>
      perm |= PTE_R;
    80001e42:	4749                	li	a4,18
    if (vma->permissions & PROT_WRITE) {
    80001e44:	8b89                	andi	a5,a5,2
    80001e46:	c399                	beqz	a5,80001e4c <usertrap+0x168>
      perm |= PTE_W;
    80001e48:	00476713          	ori	a4,a4,4
    if (mappages(p->pagetable, fault_va, PGSIZE, (uint64)new_pa, perm) < 0) {
    80001e4c:	86d2                	mv	a3,s4
    80001e4e:	6605                	lui	a2,0x1
    80001e50:	85ce                	mv	a1,s3
    80001e52:	05093503          	ld	a0,80(s2)
    80001e56:	ffffe097          	auipc	ra,0xffffe
    80001e5a:	6ec080e7          	jalr	1772(ra) # 80000542 <mappages>
    80001e5e:	04054463          	bltz	a0,80001ea6 <usertrap+0x1c2>
    ilock(vma->file->ip);
    80001e62:	709c                	ld	a5,32(s1)
    80001e64:	6f88                	ld	a0,24(a5)
    80001e66:	00001097          	auipc	ra,0x1
    80001e6a:	076080e7          	jalr	118(ra) # 80002edc <ilock>
    readi(vma->file->ip, 1, fault_va, PGROUNDDOWN(fault_va - vma->addr), PGSIZE);
    80001e6e:	6494                	ld	a3,8(s1)
    80001e70:	40d986bb          	subw	a3,s3,a3
    80001e74:	77fd                	lui	a5,0xfffff
    80001e76:	8efd                	and	a3,a3,a5
    80001e78:	709c                	ld	a5,32(s1)
    80001e7a:	6705                	lui	a4,0x1
    80001e7c:	2681                	sext.w	a3,a3
    80001e7e:	864e                	mv	a2,s3
    80001e80:	4585                	li	a1,1
    80001e82:	6f88                	ld	a0,24(a5)
    80001e84:	00001097          	auipc	ra,0x1
    80001e88:	30c080e7          	jalr	780(ra) # 80003190 <readi>
    iunlock(vma->file->ip);
    80001e8c:	709c                	ld	a5,32(s1)
    80001e8e:	6f88                	ld	a0,24(a5)
    80001e90:	00001097          	auipc	ra,0x1
    80001e94:	10e080e7          	jalr	270(ra) # 80002f9e <iunlock>
  } else if (r_scause() == 12 || r_scause() == 13 || r_scause() == 15) {
    80001e98:	bd45                	j	80001d48 <usertrap+0x64>
      exit(-1);
    80001e9a:	557d                	li	a0,-1
    80001e9c:	00000097          	auipc	ra,0x0
    80001ea0:	93a080e7          	jalr	-1734(ra) # 800017d6 <exit>
    80001ea4:	b759                	j	80001e2a <usertrap+0x146>
      kfree(new_pa);
    80001ea6:	8552                	mv	a0,s4
    80001ea8:	ffffe097          	auipc	ra,0xffffe
    80001eac:	174080e7          	jalr	372(ra) # 8000001c <kfree>
      exit(-1);
    80001eb0:	557d                	li	a0,-1
    80001eb2:	00000097          	auipc	ra,0x0
    80001eb6:	924080e7          	jalr	-1756(ra) # 800017d6 <exit>
    80001eba:	b765                	j	80001e62 <usertrap+0x17e>
  asm volatile("csrr %0, scause" : "=r" (x) );
    80001ebc:	142025f3          	csrr	a1,scause
    printf("usertrap(): unexpected scause %p pid=%d\n", r_scause(), p->pid);
    80001ec0:	03092603          	lw	a2,48(s2)
    80001ec4:	00006517          	auipc	a0,0x6
    80001ec8:	3dc50513          	addi	a0,a0,988 # 800082a0 <states.0+0x78>
    80001ecc:	00004097          	auipc	ra,0x4
    80001ed0:	0ce080e7          	jalr	206(ra) # 80005f9a <printf>
  asm volatile("csrr %0, sepc" : "=r" (x) );
    80001ed4:	141025f3          	csrr	a1,sepc
  asm volatile("csrr %0, stval" : "=r" (x) );
    80001ed8:	14302673          	csrr	a2,stval
    printf("            sepc=%p stval=%p\n", r_sepc(), r_stval());
    80001edc:	00006517          	auipc	a0,0x6
    80001ee0:	3f450513          	addi	a0,a0,1012 # 800082d0 <states.0+0xa8>
    80001ee4:	00004097          	auipc	ra,0x4
    80001ee8:	0b6080e7          	jalr	182(ra) # 80005f9a <printf>
    p->killed = 1;
    80001eec:	4785                	li	a5,1
    80001eee:	02f92423          	sw	a5,40(s2)
  if(p->killed)
    80001ef2:	a031                	j	80001efe <usertrap+0x21a>
    80001ef4:	02892783          	lw	a5,40(s2)
    80001ef8:	cb81                	beqz	a5,80001f08 <usertrap+0x224>
    80001efa:	a011                	j	80001efe <usertrap+0x21a>
    80001efc:	4481                	li	s1,0
    exit(-1);
    80001efe:	557d                	li	a0,-1
    80001f00:	00000097          	auipc	ra,0x0
    80001f04:	8d6080e7          	jalr	-1834(ra) # 800017d6 <exit>
  if(which_dev == 2)
    80001f08:	4789                	li	a5,2
    80001f0a:	e4f493e3          	bne	s1,a5,80001d50 <usertrap+0x6c>
    yield();
    80001f0e:	fffff097          	auipc	ra,0xfffff
    80001f12:	630080e7          	jalr	1584(ra) # 8000153e <yield>
    80001f16:	bd2d                	j	80001d50 <usertrap+0x6c>

0000000080001f18 <kerneltrap>:
{
    80001f18:	7179                	addi	sp,sp,-48
    80001f1a:	f406                	sd	ra,40(sp)
    80001f1c:	f022                	sd	s0,32(sp)
    80001f1e:	ec26                	sd	s1,24(sp)
    80001f20:	e84a                	sd	s2,16(sp)
    80001f22:	e44e                	sd	s3,8(sp)
    80001f24:	1800                	addi	s0,sp,48
  asm volatile("csrr %0, sepc" : "=r" (x) );
    80001f26:	14102973          	csrr	s2,sepc
  asm volatile("csrr %0, sstatus" : "=r" (x) );
    80001f2a:	100024f3          	csrr	s1,sstatus
  asm volatile("csrr %0, scause" : "=r" (x) );
    80001f2e:	142029f3          	csrr	s3,scause
  if((sstatus & SSTATUS_SPP) == 0)
    80001f32:	1004f793          	andi	a5,s1,256
    80001f36:	cb85                	beqz	a5,80001f66 <kerneltrap+0x4e>
  asm volatile("csrr %0, sstatus" : "=r" (x) );
    80001f38:	100027f3          	csrr	a5,sstatus
  return (x & SSTATUS_SIE) != 0;
    80001f3c:	8b89                	andi	a5,a5,2
  if(intr_get() != 0)
    80001f3e:	ef85                	bnez	a5,80001f76 <kerneltrap+0x5e>
  if((which_dev = devintr()) == 0){
    80001f40:	00000097          	auipc	ra,0x0
    80001f44:	d02080e7          	jalr	-766(ra) # 80001c42 <devintr>
    80001f48:	cd1d                	beqz	a0,80001f86 <kerneltrap+0x6e>
  if(which_dev == 2 && myproc() != 0 && myproc()->state == RUNNING)
    80001f4a:	4789                	li	a5,2
    80001f4c:	06f50a63          	beq	a0,a5,80001fc0 <kerneltrap+0xa8>
  asm volatile("csrw sepc, %0" : : "r" (x));
    80001f50:	14191073          	csrw	sepc,s2
  asm volatile("csrw sstatus, %0" : : "r" (x));
    80001f54:	10049073          	csrw	sstatus,s1
}
    80001f58:	70a2                	ld	ra,40(sp)
    80001f5a:	7402                	ld	s0,32(sp)
    80001f5c:	64e2                	ld	s1,24(sp)
    80001f5e:	6942                	ld	s2,16(sp)
    80001f60:	69a2                	ld	s3,8(sp)
    80001f62:	6145                	addi	sp,sp,48
    80001f64:	8082                	ret
    panic("kerneltrap: not from supervisor mode");
    80001f66:	00006517          	auipc	a0,0x6
    80001f6a:	38a50513          	addi	a0,a0,906 # 800082f0 <states.0+0xc8>
    80001f6e:	00004097          	auipc	ra,0x4
    80001f72:	fe2080e7          	jalr	-30(ra) # 80005f50 <panic>
    panic("kerneltrap: interrupts enabled");
    80001f76:	00006517          	auipc	a0,0x6
    80001f7a:	3a250513          	addi	a0,a0,930 # 80008318 <states.0+0xf0>
    80001f7e:	00004097          	auipc	ra,0x4
    80001f82:	fd2080e7          	jalr	-46(ra) # 80005f50 <panic>
    printf("scause %p\n", scause);
    80001f86:	85ce                	mv	a1,s3
    80001f88:	00006517          	auipc	a0,0x6
    80001f8c:	3b050513          	addi	a0,a0,944 # 80008338 <states.0+0x110>
    80001f90:	00004097          	auipc	ra,0x4
    80001f94:	00a080e7          	jalr	10(ra) # 80005f9a <printf>
  asm volatile("csrr %0, sepc" : "=r" (x) );
    80001f98:	141025f3          	csrr	a1,sepc
  asm volatile("csrr %0, stval" : "=r" (x) );
    80001f9c:	14302673          	csrr	a2,stval
    printf("sepc=%p stval=%p\n", r_sepc(), r_stval());
    80001fa0:	00006517          	auipc	a0,0x6
    80001fa4:	3a850513          	addi	a0,a0,936 # 80008348 <states.0+0x120>
    80001fa8:	00004097          	auipc	ra,0x4
    80001fac:	ff2080e7          	jalr	-14(ra) # 80005f9a <printf>
    panic("kerneltrap");
    80001fb0:	00006517          	auipc	a0,0x6
    80001fb4:	3b050513          	addi	a0,a0,944 # 80008360 <states.0+0x138>
    80001fb8:	00004097          	auipc	ra,0x4
    80001fbc:	f98080e7          	jalr	-104(ra) # 80005f50 <panic>
  if(which_dev == 2 && myproc() != 0 && myproc()->state == RUNNING)
    80001fc0:	fffff097          	auipc	ra,0xfffff
    80001fc4:	eac080e7          	jalr	-340(ra) # 80000e6c <myproc>
    80001fc8:	d541                	beqz	a0,80001f50 <kerneltrap+0x38>
    80001fca:	fffff097          	auipc	ra,0xfffff
    80001fce:	ea2080e7          	jalr	-350(ra) # 80000e6c <myproc>
    80001fd2:	4d18                	lw	a4,24(a0)
    80001fd4:	4791                	li	a5,4
    80001fd6:	f6f71de3          	bne	a4,a5,80001f50 <kerneltrap+0x38>
    yield();
    80001fda:	fffff097          	auipc	ra,0xfffff
    80001fde:	564080e7          	jalr	1380(ra) # 8000153e <yield>
    80001fe2:	b7bd                	j	80001f50 <kerneltrap+0x38>

0000000080001fe4 <argraw>:
  return strlen(buf);
}

static uint64
argraw(int n)
{
    80001fe4:	1101                	addi	sp,sp,-32
    80001fe6:	ec06                	sd	ra,24(sp)
    80001fe8:	e822                	sd	s0,16(sp)
    80001fea:	e426                	sd	s1,8(sp)
    80001fec:	1000                	addi	s0,sp,32
    80001fee:	84aa                	mv	s1,a0
  struct proc *p = myproc();
    80001ff0:	fffff097          	auipc	ra,0xfffff
    80001ff4:	e7c080e7          	jalr	-388(ra) # 80000e6c <myproc>
  switch (n) {
    80001ff8:	4795                	li	a5,5
    80001ffa:	0497e163          	bltu	a5,s1,8000203c <argraw+0x58>
    80001ffe:	048a                	slli	s1,s1,0x2
    80002000:	00006717          	auipc	a4,0x6
    80002004:	39870713          	addi	a4,a4,920 # 80008398 <states.0+0x170>
    80002008:	94ba                	add	s1,s1,a4
    8000200a:	409c                	lw	a5,0(s1)
    8000200c:	97ba                	add	a5,a5,a4
    8000200e:	8782                	jr	a5
  case 0:
    return p->trapframe->a0;
    80002010:	6d3c                	ld	a5,88(a0)
    80002012:	7ba8                	ld	a0,112(a5)
  case 5:
    return p->trapframe->a5;
  }
  panic("argraw");
  return -1;
}
    80002014:	60e2                	ld	ra,24(sp)
    80002016:	6442                	ld	s0,16(sp)
    80002018:	64a2                	ld	s1,8(sp)
    8000201a:	6105                	addi	sp,sp,32
    8000201c:	8082                	ret
    return p->trapframe->a1;
    8000201e:	6d3c                	ld	a5,88(a0)
    80002020:	7fa8                	ld	a0,120(a5)
    80002022:	bfcd                	j	80002014 <argraw+0x30>
    return p->trapframe->a2;
    80002024:	6d3c                	ld	a5,88(a0)
    80002026:	63c8                	ld	a0,128(a5)
    80002028:	b7f5                	j	80002014 <argraw+0x30>
    return p->trapframe->a3;
    8000202a:	6d3c                	ld	a5,88(a0)
    8000202c:	67c8                	ld	a0,136(a5)
    8000202e:	b7dd                	j	80002014 <argraw+0x30>
    return p->trapframe->a4;
    80002030:	6d3c                	ld	a5,88(a0)
    80002032:	6bc8                	ld	a0,144(a5)
    80002034:	b7c5                	j	80002014 <argraw+0x30>
    return p->trapframe->a5;
    80002036:	6d3c                	ld	a5,88(a0)
    80002038:	6fc8                	ld	a0,152(a5)
    8000203a:	bfe9                	j	80002014 <argraw+0x30>
  panic("argraw");
    8000203c:	00006517          	auipc	a0,0x6
    80002040:	33450513          	addi	a0,a0,820 # 80008370 <states.0+0x148>
    80002044:	00004097          	auipc	ra,0x4
    80002048:	f0c080e7          	jalr	-244(ra) # 80005f50 <panic>

000000008000204c <fetchaddr>:
{
    8000204c:	1101                	addi	sp,sp,-32
    8000204e:	ec06                	sd	ra,24(sp)
    80002050:	e822                	sd	s0,16(sp)
    80002052:	e426                	sd	s1,8(sp)
    80002054:	e04a                	sd	s2,0(sp)
    80002056:	1000                	addi	s0,sp,32
    80002058:	84aa                	mv	s1,a0
    8000205a:	892e                	mv	s2,a1
  struct proc *p = myproc();
    8000205c:	fffff097          	auipc	ra,0xfffff
    80002060:	e10080e7          	jalr	-496(ra) # 80000e6c <myproc>
  if(addr >= p->sz || addr+sizeof(uint64) > p->sz)
    80002064:	653c                	ld	a5,72(a0)
    80002066:	02f4f863          	bgeu	s1,a5,80002096 <fetchaddr+0x4a>
    8000206a:	00848713          	addi	a4,s1,8
    8000206e:	02e7e663          	bltu	a5,a4,8000209a <fetchaddr+0x4e>
  if(copyin(p->pagetable, (char *)ip, addr, sizeof(*ip)) != 0)
    80002072:	46a1                	li	a3,8
    80002074:	8626                	mv	a2,s1
    80002076:	85ca                	mv	a1,s2
    80002078:	6928                	ld	a0,80(a0)
    8000207a:	fffff097          	auipc	ra,0xfffff
    8000207e:	b0c080e7          	jalr	-1268(ra) # 80000b86 <copyin>
    80002082:	00a03533          	snez	a0,a0
    80002086:	40a00533          	neg	a0,a0
}
    8000208a:	60e2                	ld	ra,24(sp)
    8000208c:	6442                	ld	s0,16(sp)
    8000208e:	64a2                	ld	s1,8(sp)
    80002090:	6902                	ld	s2,0(sp)
    80002092:	6105                	addi	sp,sp,32
    80002094:	8082                	ret
    return -1;
    80002096:	557d                	li	a0,-1
    80002098:	bfcd                	j	8000208a <fetchaddr+0x3e>
    8000209a:	557d                	li	a0,-1
    8000209c:	b7fd                	j	8000208a <fetchaddr+0x3e>

000000008000209e <fetchstr>:
{
    8000209e:	7179                	addi	sp,sp,-48
    800020a0:	f406                	sd	ra,40(sp)
    800020a2:	f022                	sd	s0,32(sp)
    800020a4:	ec26                	sd	s1,24(sp)
    800020a6:	e84a                	sd	s2,16(sp)
    800020a8:	e44e                	sd	s3,8(sp)
    800020aa:	1800                	addi	s0,sp,48
    800020ac:	892a                	mv	s2,a0
    800020ae:	84ae                	mv	s1,a1
    800020b0:	89b2                	mv	s3,a2
  struct proc *p = myproc();
    800020b2:	fffff097          	auipc	ra,0xfffff
    800020b6:	dba080e7          	jalr	-582(ra) # 80000e6c <myproc>
  int err = copyinstr(p->pagetable, buf, addr, max);
    800020ba:	86ce                	mv	a3,s3
    800020bc:	864a                	mv	a2,s2
    800020be:	85a6                	mv	a1,s1
    800020c0:	6928                	ld	a0,80(a0)
    800020c2:	fffff097          	auipc	ra,0xfffff
    800020c6:	b52080e7          	jalr	-1198(ra) # 80000c14 <copyinstr>
  if(err < 0)
    800020ca:	00054763          	bltz	a0,800020d8 <fetchstr+0x3a>
  return strlen(buf);
    800020ce:	8526                	mv	a0,s1
    800020d0:	ffffe097          	auipc	ra,0xffffe
    800020d4:	226080e7          	jalr	550(ra) # 800002f6 <strlen>
}
    800020d8:	70a2                	ld	ra,40(sp)
    800020da:	7402                	ld	s0,32(sp)
    800020dc:	64e2                	ld	s1,24(sp)
    800020de:	6942                	ld	s2,16(sp)
    800020e0:	69a2                	ld	s3,8(sp)
    800020e2:	6145                	addi	sp,sp,48
    800020e4:	8082                	ret

00000000800020e6 <argint>:

// Fetch the nth 32-bit system call argument.
int
argint(int n, int *ip)
{
    800020e6:	1101                	addi	sp,sp,-32
    800020e8:	ec06                	sd	ra,24(sp)
    800020ea:	e822                	sd	s0,16(sp)
    800020ec:	e426                	sd	s1,8(sp)
    800020ee:	1000                	addi	s0,sp,32
    800020f0:	84ae                	mv	s1,a1
  *ip = argraw(n);
    800020f2:	00000097          	auipc	ra,0x0
    800020f6:	ef2080e7          	jalr	-270(ra) # 80001fe4 <argraw>
    800020fa:	c088                	sw	a0,0(s1)
  return 0;
}
    800020fc:	4501                	li	a0,0
    800020fe:	60e2                	ld	ra,24(sp)
    80002100:	6442                	ld	s0,16(sp)
    80002102:	64a2                	ld	s1,8(sp)
    80002104:	6105                	addi	sp,sp,32
    80002106:	8082                	ret

0000000080002108 <argaddr>:
// Retrieve an argument as a pointer.
// Doesn't check for legality, since
// copyin/copyout will do that.
int
argaddr(int n, uint64 *ip)
{
    80002108:	1101                	addi	sp,sp,-32
    8000210a:	ec06                	sd	ra,24(sp)
    8000210c:	e822                	sd	s0,16(sp)
    8000210e:	e426                	sd	s1,8(sp)
    80002110:	1000                	addi	s0,sp,32
    80002112:	84ae                	mv	s1,a1
  *ip = argraw(n);
    80002114:	00000097          	auipc	ra,0x0
    80002118:	ed0080e7          	jalr	-304(ra) # 80001fe4 <argraw>
    8000211c:	e088                	sd	a0,0(s1)
  return 0;
}
    8000211e:	4501                	li	a0,0
    80002120:	60e2                	ld	ra,24(sp)
    80002122:	6442                	ld	s0,16(sp)
    80002124:	64a2                	ld	s1,8(sp)
    80002126:	6105                	addi	sp,sp,32
    80002128:	8082                	ret

000000008000212a <argstr>:
// Fetch the nth word-sized system call argument as a null-terminated string.
// Copies into buf, at most max.
// Returns string length if OK (including nul), -1 if error.
int
argstr(int n, char *buf, int max)
{
    8000212a:	1101                	addi	sp,sp,-32
    8000212c:	ec06                	sd	ra,24(sp)
    8000212e:	e822                	sd	s0,16(sp)
    80002130:	e426                	sd	s1,8(sp)
    80002132:	e04a                	sd	s2,0(sp)
    80002134:	1000                	addi	s0,sp,32
    80002136:	84ae                	mv	s1,a1
    80002138:	8932                	mv	s2,a2
  *ip = argraw(n);
    8000213a:	00000097          	auipc	ra,0x0
    8000213e:	eaa080e7          	jalr	-342(ra) # 80001fe4 <argraw>
  uint64 addr;
  if(argaddr(n, &addr) < 0)
    return -1;
  return fetchstr(addr, buf, max);
    80002142:	864a                	mv	a2,s2
    80002144:	85a6                	mv	a1,s1
    80002146:	00000097          	auipc	ra,0x0
    8000214a:	f58080e7          	jalr	-168(ra) # 8000209e <fetchstr>
}
    8000214e:	60e2                	ld	ra,24(sp)
    80002150:	6442                	ld	s0,16(sp)
    80002152:	64a2                	ld	s1,8(sp)
    80002154:	6902                	ld	s2,0(sp)
    80002156:	6105                	addi	sp,sp,32
    80002158:	8082                	ret

000000008000215a <syscall>:

};

void
syscall(void)
{
    8000215a:	1101                	addi	sp,sp,-32
    8000215c:	ec06                	sd	ra,24(sp)
    8000215e:	e822                	sd	s0,16(sp)
    80002160:	e426                	sd	s1,8(sp)
    80002162:	e04a                	sd	s2,0(sp)
    80002164:	1000                	addi	s0,sp,32
  int num;
  struct proc *p = myproc();
    80002166:	fffff097          	auipc	ra,0xfffff
    8000216a:	d06080e7          	jalr	-762(ra) # 80000e6c <myproc>
    8000216e:	84aa                	mv	s1,a0

  num = p->trapframe->a7;
    80002170:	05853903          	ld	s2,88(a0)
    80002174:	0a893783          	ld	a5,168(s2)
    80002178:	0007869b          	sext.w	a3,a5
  if(num > 0 && num < NELEM(syscalls) && syscalls[num]) {
    8000217c:	37fd                	addiw	a5,a5,-1 # ffffffffffffefff <end+0xffffffff7ffcedbf>
    8000217e:	4759                	li	a4,22
    80002180:	00f76f63          	bltu	a4,a5,8000219e <syscall+0x44>
    80002184:	00369713          	slli	a4,a3,0x3
    80002188:	00006797          	auipc	a5,0x6
    8000218c:	22878793          	addi	a5,a5,552 # 800083b0 <syscalls>
    80002190:	97ba                	add	a5,a5,a4
    80002192:	639c                	ld	a5,0(a5)
    80002194:	c789                	beqz	a5,8000219e <syscall+0x44>
    p->trapframe->a0 = syscalls[num]();
    80002196:	9782                	jalr	a5
    80002198:	06a93823          	sd	a0,112(s2)
    8000219c:	a839                	j	800021ba <syscall+0x60>
  } else {
    printf("%d %s: unknown sys call %d\n",
    8000219e:	15848613          	addi	a2,s1,344
    800021a2:	588c                	lw	a1,48(s1)
    800021a4:	00006517          	auipc	a0,0x6
    800021a8:	1d450513          	addi	a0,a0,468 # 80008378 <states.0+0x150>
    800021ac:	00004097          	auipc	ra,0x4
    800021b0:	dee080e7          	jalr	-530(ra) # 80005f9a <printf>
            p->pid, p->name, num);
    p->trapframe->a0 = -1;
    800021b4:	6cbc                	ld	a5,88(s1)
    800021b6:	577d                	li	a4,-1
    800021b8:	fbb8                	sd	a4,112(a5)
  }
}
    800021ba:	60e2                	ld	ra,24(sp)
    800021bc:	6442                	ld	s0,16(sp)
    800021be:	64a2                	ld	s1,8(sp)
    800021c0:	6902                	ld	s2,0(sp)
    800021c2:	6105                	addi	sp,sp,32
    800021c4:	8082                	ret

00000000800021c6 <sys_exit>:



uint64
sys_exit(void)
{
    800021c6:	1101                	addi	sp,sp,-32
    800021c8:	ec06                	sd	ra,24(sp)
    800021ca:	e822                	sd	s0,16(sp)
    800021cc:	1000                	addi	s0,sp,32
  int n;
  if(argint(0, &n) < 0)
    800021ce:	fec40593          	addi	a1,s0,-20
    800021d2:	4501                	li	a0,0
    800021d4:	00000097          	auipc	ra,0x0
    800021d8:	f12080e7          	jalr	-238(ra) # 800020e6 <argint>
    return -1;
    800021dc:	57fd                	li	a5,-1
  if(argint(0, &n) < 0)
    800021de:	00054963          	bltz	a0,800021f0 <sys_exit+0x2a>
  exit(n);
    800021e2:	fec42503          	lw	a0,-20(s0)
    800021e6:	fffff097          	auipc	ra,0xfffff
    800021ea:	5f0080e7          	jalr	1520(ra) # 800017d6 <exit>
  return 0;  // not reached
    800021ee:	4781                	li	a5,0
}
    800021f0:	853e                	mv	a0,a5
    800021f2:	60e2                	ld	ra,24(sp)
    800021f4:	6442                	ld	s0,16(sp)
    800021f6:	6105                	addi	sp,sp,32
    800021f8:	8082                	ret

00000000800021fa <sys_getpid>:

uint64
sys_getpid(void)
{
    800021fa:	1141                	addi	sp,sp,-16
    800021fc:	e406                	sd	ra,8(sp)
    800021fe:	e022                	sd	s0,0(sp)
    80002200:	0800                	addi	s0,sp,16
  return myproc()->pid;
    80002202:	fffff097          	auipc	ra,0xfffff
    80002206:	c6a080e7          	jalr	-918(ra) # 80000e6c <myproc>
}
    8000220a:	5908                	lw	a0,48(a0)
    8000220c:	60a2                	ld	ra,8(sp)
    8000220e:	6402                	ld	s0,0(sp)
    80002210:	0141                	addi	sp,sp,16
    80002212:	8082                	ret

0000000080002214 <sys_fork>:

uint64
sys_fork(void)
{
    80002214:	1141                	addi	sp,sp,-16
    80002216:	e406                	sd	ra,8(sp)
    80002218:	e022                	sd	s0,0(sp)
    8000221a:	0800                	addi	s0,sp,16
  return fork();
    8000221c:	fffff097          	auipc	ra,0xfffff
    80002220:	022080e7          	jalr	34(ra) # 8000123e <fork>
}
    80002224:	60a2                	ld	ra,8(sp)
    80002226:	6402                	ld	s0,0(sp)
    80002228:	0141                	addi	sp,sp,16
    8000222a:	8082                	ret

000000008000222c <sys_wait>:

uint64
sys_wait(void)
{
    8000222c:	1101                	addi	sp,sp,-32
    8000222e:	ec06                	sd	ra,24(sp)
    80002230:	e822                	sd	s0,16(sp)
    80002232:	1000                	addi	s0,sp,32
  uint64 p;
  if(argaddr(0, &p) < 0)
    80002234:	fe840593          	addi	a1,s0,-24
    80002238:	4501                	li	a0,0
    8000223a:	00000097          	auipc	ra,0x0
    8000223e:	ece080e7          	jalr	-306(ra) # 80002108 <argaddr>
    80002242:	87aa                	mv	a5,a0
    return -1;
    80002244:	557d                	li	a0,-1
  if(argaddr(0, &p) < 0)
    80002246:	0007c863          	bltz	a5,80002256 <sys_wait+0x2a>
  return wait(p);
    8000224a:	fe843503          	ld	a0,-24(s0)
    8000224e:	fffff097          	auipc	ra,0xfffff
    80002252:	390080e7          	jalr	912(ra) # 800015de <wait>
}
    80002256:	60e2                	ld	ra,24(sp)
    80002258:	6442                	ld	s0,16(sp)
    8000225a:	6105                	addi	sp,sp,32
    8000225c:	8082                	ret

000000008000225e <sys_sbrk>:

uint64
sys_sbrk(void)
{
    8000225e:	7179                	addi	sp,sp,-48
    80002260:	f406                	sd	ra,40(sp)
    80002262:	f022                	sd	s0,32(sp)
    80002264:	ec26                	sd	s1,24(sp)
    80002266:	1800                	addi	s0,sp,48
  int addr;
  int n;

  if(argint(0, &n) < 0)
    80002268:	fdc40593          	addi	a1,s0,-36
    8000226c:	4501                	li	a0,0
    8000226e:	00000097          	auipc	ra,0x0
    80002272:	e78080e7          	jalr	-392(ra) # 800020e6 <argint>
    80002276:	87aa                	mv	a5,a0
    return -1;
    80002278:	557d                	li	a0,-1
  if(argint(0, &n) < 0)
    8000227a:	0207c063          	bltz	a5,8000229a <sys_sbrk+0x3c>
  addr = myproc()->sz;
    8000227e:	fffff097          	auipc	ra,0xfffff
    80002282:	bee080e7          	jalr	-1042(ra) # 80000e6c <myproc>
    80002286:	4524                	lw	s1,72(a0)
  if(growproc(n) < 0)
    80002288:	fdc42503          	lw	a0,-36(s0)
    8000228c:	fffff097          	auipc	ra,0xfffff
    80002290:	f3a080e7          	jalr	-198(ra) # 800011c6 <growproc>
    80002294:	00054863          	bltz	a0,800022a4 <sys_sbrk+0x46>
    return -1;
  return addr;
    80002298:	8526                	mv	a0,s1
}
    8000229a:	70a2                	ld	ra,40(sp)
    8000229c:	7402                	ld	s0,32(sp)
    8000229e:	64e2                	ld	s1,24(sp)
    800022a0:	6145                	addi	sp,sp,48
    800022a2:	8082                	ret
    return -1;
    800022a4:	557d                	li	a0,-1
    800022a6:	bfd5                	j	8000229a <sys_sbrk+0x3c>

00000000800022a8 <sys_sleep>:

uint64
sys_sleep(void)
{
    800022a8:	7139                	addi	sp,sp,-64
    800022aa:	fc06                	sd	ra,56(sp)
    800022ac:	f822                	sd	s0,48(sp)
    800022ae:	f426                	sd	s1,40(sp)
    800022b0:	f04a                	sd	s2,32(sp)
    800022b2:	ec4e                	sd	s3,24(sp)
    800022b4:	0080                	addi	s0,sp,64
  int n;
  uint ticks0;

  if(argint(0, &n) < 0)
    800022b6:	fcc40593          	addi	a1,s0,-52
    800022ba:	4501                	li	a0,0
    800022bc:	00000097          	auipc	ra,0x0
    800022c0:	e2a080e7          	jalr	-470(ra) # 800020e6 <argint>
    return -1;
    800022c4:	57fd                	li	a5,-1
  if(argint(0, &n) < 0)
    800022c6:	06054563          	bltz	a0,80002330 <sys_sleep+0x88>
  acquire(&tickslock);
    800022ca:	00017517          	auipc	a0,0x17
    800022ce:	db650513          	addi	a0,a0,-586 # 80019080 <tickslock>
    800022d2:	00004097          	auipc	ra,0x4
    800022d6:	1b6080e7          	jalr	438(ra) # 80006488 <acquire>
  ticks0 = ticks;
    800022da:	00007917          	auipc	s2,0x7
    800022de:	d3e92903          	lw	s2,-706(s2) # 80009018 <ticks>
  while(ticks - ticks0 < n){
    800022e2:	fcc42783          	lw	a5,-52(s0)
    800022e6:	cf85                	beqz	a5,8000231e <sys_sleep+0x76>
    if(myproc()->killed){
      release(&tickslock);
      return -1;
    }
    sleep(&ticks, &tickslock);
    800022e8:	00017997          	auipc	s3,0x17
    800022ec:	d9898993          	addi	s3,s3,-616 # 80019080 <tickslock>
    800022f0:	00007497          	auipc	s1,0x7
    800022f4:	d2848493          	addi	s1,s1,-728 # 80009018 <ticks>
    if(myproc()->killed){
    800022f8:	fffff097          	auipc	ra,0xfffff
    800022fc:	b74080e7          	jalr	-1164(ra) # 80000e6c <myproc>
    80002300:	551c                	lw	a5,40(a0)
    80002302:	ef9d                	bnez	a5,80002340 <sys_sleep+0x98>
    sleep(&ticks, &tickslock);
    80002304:	85ce                	mv	a1,s3
    80002306:	8526                	mv	a0,s1
    80002308:	fffff097          	auipc	ra,0xfffff
    8000230c:	272080e7          	jalr	626(ra) # 8000157a <sleep>
  while(ticks - ticks0 < n){
    80002310:	409c                	lw	a5,0(s1)
    80002312:	412787bb          	subw	a5,a5,s2
    80002316:	fcc42703          	lw	a4,-52(s0)
    8000231a:	fce7efe3          	bltu	a5,a4,800022f8 <sys_sleep+0x50>
  }
  release(&tickslock);
    8000231e:	00017517          	auipc	a0,0x17
    80002322:	d6250513          	addi	a0,a0,-670 # 80019080 <tickslock>
    80002326:	00004097          	auipc	ra,0x4
    8000232a:	216080e7          	jalr	534(ra) # 8000653c <release>
  return 0;
    8000232e:	4781                	li	a5,0
}
    80002330:	853e                	mv	a0,a5
    80002332:	70e2                	ld	ra,56(sp)
    80002334:	7442                	ld	s0,48(sp)
    80002336:	74a2                	ld	s1,40(sp)
    80002338:	7902                	ld	s2,32(sp)
    8000233a:	69e2                	ld	s3,24(sp)
    8000233c:	6121                	addi	sp,sp,64
    8000233e:	8082                	ret
      release(&tickslock);
    80002340:	00017517          	auipc	a0,0x17
    80002344:	d4050513          	addi	a0,a0,-704 # 80019080 <tickslock>
    80002348:	00004097          	auipc	ra,0x4
    8000234c:	1f4080e7          	jalr	500(ra) # 8000653c <release>
      return -1;
    80002350:	57fd                	li	a5,-1
    80002352:	bff9                	j	80002330 <sys_sleep+0x88>

0000000080002354 <sys_kill>:

uint64
sys_kill(void)
{
    80002354:	1101                	addi	sp,sp,-32
    80002356:	ec06                	sd	ra,24(sp)
    80002358:	e822                	sd	s0,16(sp)
    8000235a:	1000                	addi	s0,sp,32
  int pid;

  if(argint(0, &pid) < 0)
    8000235c:	fec40593          	addi	a1,s0,-20
    80002360:	4501                	li	a0,0
    80002362:	00000097          	auipc	ra,0x0
    80002366:	d84080e7          	jalr	-636(ra) # 800020e6 <argint>
    8000236a:	87aa                	mv	a5,a0
    return -1;
    8000236c:	557d                	li	a0,-1
  if(argint(0, &pid) < 0)
    8000236e:	0007c863          	bltz	a5,8000237e <sys_kill+0x2a>
  return kill(pid);
    80002372:	fec42503          	lw	a0,-20(s0)
    80002376:	fffff097          	auipc	ra,0xfffff
    8000237a:	570080e7          	jalr	1392(ra) # 800018e6 <kill>
}
    8000237e:	60e2                	ld	ra,24(sp)
    80002380:	6442                	ld	s0,16(sp)
    80002382:	6105                	addi	sp,sp,32
    80002384:	8082                	ret

0000000080002386 <sys_uptime>:

// return how many clock tick interrupts have occurred
// since start.
uint64
sys_uptime(void)
{
    80002386:	1101                	addi	sp,sp,-32
    80002388:	ec06                	sd	ra,24(sp)
    8000238a:	e822                	sd	s0,16(sp)
    8000238c:	e426                	sd	s1,8(sp)
    8000238e:	1000                	addi	s0,sp,32
  uint xticks;

  acquire(&tickslock);
    80002390:	00017517          	auipc	a0,0x17
    80002394:	cf050513          	addi	a0,a0,-784 # 80019080 <tickslock>
    80002398:	00004097          	auipc	ra,0x4
    8000239c:	0f0080e7          	jalr	240(ra) # 80006488 <acquire>
  xticks = ticks;
    800023a0:	00007497          	auipc	s1,0x7
    800023a4:	c784a483          	lw	s1,-904(s1) # 80009018 <ticks>
  release(&tickslock);
    800023a8:	00017517          	auipc	a0,0x17
    800023ac:	cd850513          	addi	a0,a0,-808 # 80019080 <tickslock>
    800023b0:	00004097          	auipc	ra,0x4
    800023b4:	18c080e7          	jalr	396(ra) # 8000653c <release>
  return xticks;
}
    800023b8:	02049513          	slli	a0,s1,0x20
    800023bc:	9101                	srli	a0,a0,0x20
    800023be:	60e2                	ld	ra,24(sp)
    800023c0:	6442                	ld	s0,16(sp)
    800023c2:	64a2                	ld	s1,8(sp)
    800023c4:	6105                	addi	sp,sp,32
    800023c6:	8082                	ret

00000000800023c8 <sys_mmap>:

uint64
sys_mmap(void)
{
    800023c8:	7139                	addi	sp,sp,-64
    800023ca:	fc06                	sd	ra,56(sp)
    800023cc:	f822                	sd	s0,48(sp)
    800023ce:	f426                	sd	s1,40(sp)
    800023d0:	f04a                	sd	s2,32(sp)
    800023d2:	ec4e                	sd	s3,24(sp)
    800023d4:	0080                	addi	s0,sp,64
  int length;
  if(argint(1, &length) < 0)
    800023d6:	fcc40593          	addi	a1,s0,-52
    800023da:	4505                	li	a0,1
    800023dc:	00000097          	auipc	ra,0x0
    800023e0:	d0a080e7          	jalr	-758(ra) # 800020e6 <argint>
    800023e4:	0e054963          	bltz	a0,800024d6 <sys_mmap+0x10e>
    return -1;
  int prot;
  if(argint(2, &prot) < 0)
    800023e8:	fc840593          	addi	a1,s0,-56
    800023ec:	4509                	li	a0,2
    800023ee:	00000097          	auipc	ra,0x0
    800023f2:	cf8080e7          	jalr	-776(ra) # 800020e6 <argint>
    800023f6:	0e054863          	bltz	a0,800024e6 <sys_mmap+0x11e>
    return -1;
  int flags;
  if(argint(3, &flags) < 0)
    800023fa:	fc440593          	addi	a1,s0,-60
    800023fe:	450d                	li	a0,3
    80002400:	00000097          	auipc	ra,0x0
    80002404:	ce6080e7          	jalr	-794(ra) # 800020e6 <argint>
    80002408:	0e054163          	bltz	a0,800024ea <sys_mmap+0x122>
    return -1;
  int fd;
  if(argint(4, &fd) < 0)
    8000240c:	fc040593          	addi	a1,s0,-64
    80002410:	4511                	li	a0,4
    80002412:	00000097          	auipc	ra,0x0
    80002416:	cd4080e7          	jalr	-812(ra) # 800020e6 <argint>
    8000241a:	0c054a63          	bltz	a0,800024ee <sys_mmap+0x126>
    return -1;
  // offset is assumed to be 0.
  // if(argint(5, &offset) < 0)
  //   return -1;

  struct proc *p = myproc();
    8000241e:	fffff097          	auipc	ra,0xfffff
    80002422:	a4e080e7          	jalr	-1458(ra) # 80000e6c <myproc>
    80002426:	892a                	mv	s2,a0

  struct file *file = p->ofile[fd];
    80002428:	fc042783          	lw	a5,-64(s0)
    8000242c:	07e9                	addi	a5,a5,26
    8000242e:	078e                	slli	a5,a5,0x3
    80002430:	97aa                	add	a5,a5,a0
    80002432:	6388                	ld	a0,0(a5)

  if (!file->readable && (prot & PROT_READ)) {
    80002434:	00854783          	lbu	a5,8(a0)
    80002438:	e789                	bnez	a5,80002442 <sys_mmap+0x7a>
    8000243a:	fc842783          	lw	a5,-56(s0)
    8000243e:	8b85                	andi	a5,a5,1
    80002440:	ebcd                	bnez	a5,800024f2 <sys_mmap+0x12a>
    return -1;
  }

  if (!file->writable && (prot & PROT_WRITE) && !(flags & MAP_PRIVATE)) {
    80002442:	00954783          	lbu	a5,9(a0)
    80002446:	e789                	bnez	a5,80002450 <sys_mmap+0x88>
    80002448:	fc842783          	lw	a5,-56(s0)
    8000244c:	8b89                	andi	a5,a5,2
    8000244e:	e785                	bnez	a5,80002476 <sys_mmap+0xae>
    return -1;
  }
  
  for (int i = 0; i < VMA_SIZE; i++) {
    80002450:	17090793          	addi	a5,s2,368
{
    80002454:	4481                	li	s1,0
  for (int i = 0; i < VMA_SIZE; i++) {
    80002456:	46c1                	li	a3,16
    if (!p->VMAs[i].valid) {
    80002458:	4398                	lw	a4,0(a5)
    8000245a:	c705                	beqz	a4,80002482 <sys_mmap+0xba>
  for (int i = 0; i < VMA_SIZE; i++) {
    8000245c:	2485                	addiw	s1,s1,1
    8000245e:	02878793          	addi	a5,a5,40
    80002462:	fed49be3          	bne	s1,a3,80002458 <sys_mmap+0x90>
      filedup(p->ofile[fd]);
      return p->VMAs[i].addr;
    }
  }

  panic("mmap: no free VMA");
    80002466:	00006517          	auipc	a0,0x6
    8000246a:	00a50513          	addi	a0,a0,10 # 80008470 <syscalls+0xc0>
    8000246e:	00004097          	auipc	ra,0x4
    80002472:	ae2080e7          	jalr	-1310(ra) # 80005f50 <panic>
  if (!file->writable && (prot & PROT_WRITE) && !(flags & MAP_PRIVATE)) {
    80002476:	fc442783          	lw	a5,-60(s0)
    8000247a:	8b89                	andi	a5,a5,2
    8000247c:	fbf1                	bnez	a5,80002450 <sys_mmap+0x88>
    return -1;
    8000247e:	557d                	li	a0,-1
    80002480:	a8a1                	j	800024d8 <sys_mmap+0x110>
      p->VMAs[i].valid = 1;
    80002482:	00249993          	slli	s3,s1,0x2
    80002486:	009987b3          	add	a5,s3,s1
    8000248a:	078e                	slli	a5,a5,0x3
    8000248c:	97ca                	add	a5,a5,s2
    8000248e:	4705                	li	a4,1
    80002490:	16e7a823          	sw	a4,368(a5)
      p->VMAs[i].file = file;
    80002494:	18a7b823          	sd	a0,400(a5)
      p->VMAs[i].size = length;
    80002498:	fcc42683          	lw	a3,-52(s0)
    8000249c:	18d7b023          	sd	a3,384(a5)
      p->VMAs[i].addr = PGROUNDDOWN(p->VMA_top - length);
    800024a0:	16893703          	ld	a4,360(s2)
    800024a4:	8f15                	sub	a4,a4,a3
    800024a6:	76fd                	lui	a3,0xfffff
    800024a8:	8f75                	and	a4,a4,a3
    800024aa:	16e7bc23          	sd	a4,376(a5)
      p->VMAs[i].permissions = prot;
    800024ae:	fc842683          	lw	a3,-56(s0)
    800024b2:	18d7a423          	sw	a3,392(a5)
      p->VMAs[i].flags = flags;
    800024b6:	fc442683          	lw	a3,-60(s0)
    800024ba:	18d7a623          	sw	a3,396(a5)
      p->VMA_top = p->VMAs[i].addr;
    800024be:	16e93423          	sd	a4,360(s2)
      filedup(p->ofile[fd]);
    800024c2:	00002097          	auipc	ra,0x2
    800024c6:	86c080e7          	jalr	-1940(ra) # 80003d2e <filedup>
      return p->VMAs[i].addr;
    800024ca:	99a6                	add	s3,s3,s1
    800024cc:	098e                	slli	s3,s3,0x3
    800024ce:	994e                	add	s2,s2,s3
    800024d0:	17893503          	ld	a0,376(s2)
    800024d4:	a011                	j	800024d8 <sys_mmap+0x110>
    return -1;
    800024d6:	557d                	li	a0,-1

  return -1;
  

}
    800024d8:	70e2                	ld	ra,56(sp)
    800024da:	7442                	ld	s0,48(sp)
    800024dc:	74a2                	ld	s1,40(sp)
    800024de:	7902                	ld	s2,32(sp)
    800024e0:	69e2                	ld	s3,24(sp)
    800024e2:	6121                	addi	sp,sp,64
    800024e4:	8082                	ret
    return -1;
    800024e6:	557d                	li	a0,-1
    800024e8:	bfc5                	j	800024d8 <sys_mmap+0x110>
    return -1;
    800024ea:	557d                	li	a0,-1
    800024ec:	b7f5                	j	800024d8 <sys_mmap+0x110>
    return -1;
    800024ee:	557d                	li	a0,-1
    800024f0:	b7e5                	j	800024d8 <sys_mmap+0x110>
    return -1;
    800024f2:	557d                	li	a0,-1
    800024f4:	b7d5                	j	800024d8 <sys_mmap+0x110>

00000000800024f6 <sys_munmap>:

uint64
sys_munmap(void)
{
    800024f6:	7139                	addi	sp,sp,-64
    800024f8:	fc06                	sd	ra,56(sp)
    800024fa:	f822                	sd	s0,48(sp)
    800024fc:	f426                	sd	s1,40(sp)
    800024fe:	f04a                	sd	s2,32(sp)
    80002500:	ec4e                	sd	s3,24(sp)
    80002502:	e852                	sd	s4,16(sp)
    80002504:	0080                	addi	s0,sp,64
  uint64 addr;
  if(argaddr(0, &addr) < 0)
    80002506:	fc840593          	addi	a1,s0,-56
    8000250a:	4501                	li	a0,0
    8000250c:	00000097          	auipc	ra,0x0
    80002510:	bfc080e7          	jalr	-1028(ra) # 80002108 <argaddr>
    80002514:	12054063          	bltz	a0,80002634 <sys_munmap+0x13e>
    return -1;
  int length;
  if(argint(1, &length) < 0)
    80002518:	fc440593          	addi	a1,s0,-60
    8000251c:	4505                	li	a0,1
    8000251e:	00000097          	auipc	ra,0x0
    80002522:	bc8080e7          	jalr	-1080(ra) # 800020e6 <argint>
    80002526:	12054163          	bltz	a0,80002648 <sys_munmap+0x152>
    return -1;

  struct proc *p = myproc();
    8000252a:	fffff097          	auipc	ra,0xfffff
    8000252e:	942080e7          	jalr	-1726(ra) # 80000e6c <myproc>
    80002532:	892a                	mv	s2,a0

  struct VMA *vma = 0;
  int found = 0;
  for (int i = 0; i < VMA_SIZE; i++) {
    if (p->VMAs[i].valid && addr >= p->VMAs[i].addr && addr <= p->VMAs[i].addr + p->VMAs[i].size) {
    80002534:	fc843583          	ld	a1,-56(s0)
    80002538:	17050793          	addi	a5,a0,368
  for (int i = 0; i < VMA_SIZE; i++) {
    8000253c:	4481                	li	s1,0
    8000253e:	4641                	li	a2,16
    80002540:	a031                	j	8000254c <sys_munmap+0x56>
    80002542:	2485                	addiw	s1,s1,1
    80002544:	02878793          	addi	a5,a5,40
    80002548:	08c48263          	beq	s1,a2,800025cc <sys_munmap+0xd6>
    if (p->VMAs[i].valid && addr >= p->VMAs[i].addr && addr <= p->VMAs[i].addr + p->VMAs[i].size) {
    8000254c:	4398                	lw	a4,0(a5)
    8000254e:	db75                	beqz	a4,80002542 <sys_munmap+0x4c>
    80002550:	6798                	ld	a4,8(a5)
    80002552:	fee5e8e3          	bltu	a1,a4,80002542 <sys_munmap+0x4c>
    80002556:	6b94                	ld	a3,16(a5)
    80002558:	9736                	add	a4,a4,a3
    8000255a:	feb764e3          	bltu	a4,a1,80002542 <sys_munmap+0x4c>
    return -1;
  }

  // printf("addr: %p", addr);

  if (vma->flags & MAP_SHARED) {
    8000255e:	00249793          	slli	a5,s1,0x2
    80002562:	97a6                	add	a5,a5,s1
    80002564:	078e                	slli	a5,a5,0x3
    80002566:	97ca                	add	a5,a5,s2
    80002568:	18c7a783          	lw	a5,396(a5)
    8000256c:	8b85                	andi	a5,a5,1
    8000256e:	e7bd                	bnez	a5,800025dc <sys_munmap+0xe6>
    filewrite(vma->file, addr, length);
  }

  uvmunmap(p->pagetable, addr, length / PGSIZE, 1);
    80002570:	fc442783          	lw	a5,-60(s0)
    80002574:	41f7d61b          	sraiw	a2,a5,0x1f
    80002578:	0146561b          	srliw	a2,a2,0x14
    8000257c:	9e3d                	addw	a2,a2,a5
    8000257e:	4685                	li	a3,1
    80002580:	40c6561b          	sraiw	a2,a2,0xc
    80002584:	fc843583          	ld	a1,-56(s0)
    80002588:	05093503          	ld	a0,80(s2)
    8000258c:	ffffe097          	auipc	ra,0xffffe
    80002590:	17c080e7          	jalr	380(ra) # 80000708 <uvmunmap>
  // in this lab, addr is only at start/end
  if (addr == vma->addr) {
    80002594:	00249793          	slli	a5,s1,0x2
    80002598:	97a6                	add	a5,a5,s1
    8000259a:	078e                	slli	a5,a5,0x3
    8000259c:	97ca                	add	a5,a5,s2
    8000259e:	1787b703          	ld	a4,376(a5)
    800025a2:	fc843783          	ld	a5,-56(s0)
    800025a6:	04f70963          	beq	a4,a5,800025f8 <sys_munmap+0x102>
    vma->addr += length;
    // printf("new addr: %p\n", vma->addr);

  }
  vma->size -= length;
    800025aa:	00249793          	slli	a5,s1,0x2
    800025ae:	97a6                	add	a5,a5,s1
    800025b0:	078e                	slli	a5,a5,0x3
    800025b2:	97ca                	add	a5,a5,s2
    800025b4:	fc442703          	lw	a4,-60(s0)
    800025b8:	1807b983          	ld	s3,384(a5)
    800025bc:	40e989b3          	sub	s3,s3,a4
    800025c0:	1937b023          	sd	s3,384(a5)


  if (vma->size <= 0) {
    800025c4:	04098563          	beqz	s3,8000260e <sys_munmap+0x118>
    vma->valid = 0;
  }

  

  return 0;
    800025c8:	4981                	li	s3,0
    800025ca:	a0b5                	j	80002636 <sys_munmap+0x140>
    panic("VMA not found?");
    800025cc:	00006517          	auipc	a0,0x6
    800025d0:	ebc50513          	addi	a0,a0,-324 # 80008488 <syscalls+0xd8>
    800025d4:	00004097          	auipc	ra,0x4
    800025d8:	97c080e7          	jalr	-1668(ra) # 80005f50 <panic>
    filewrite(vma->file, addr, length);
    800025dc:	00249793          	slli	a5,s1,0x2
    800025e0:	97a6                	add	a5,a5,s1
    800025e2:	078e                	slli	a5,a5,0x3
    800025e4:	97ca                	add	a5,a5,s2
    800025e6:	fc442603          	lw	a2,-60(s0)
    800025ea:	1907b503          	ld	a0,400(a5)
    800025ee:	00002097          	auipc	ra,0x2
    800025f2:	98e080e7          	jalr	-1650(ra) # 80003f7c <filewrite>
    800025f6:	bfad                	j	80002570 <sys_munmap+0x7a>
    vma->addr += length;
    800025f8:	00249793          	slli	a5,s1,0x2
    800025fc:	97a6                	add	a5,a5,s1
    800025fe:	078e                	slli	a5,a5,0x3
    80002600:	97ca                	add	a5,a5,s2
    80002602:	fc442683          	lw	a3,-60(s0)
    80002606:	9736                	add	a4,a4,a3
    80002608:	16e7bc23          	sd	a4,376(a5)
    8000260c:	bf79                	j	800025aa <sys_munmap+0xb4>
    fileclose(vma->file);
    8000260e:	00249a13          	slli	s4,s1,0x2
    80002612:	009a07b3          	add	a5,s4,s1
    80002616:	078e                	slli	a5,a5,0x3
    80002618:	97ca                	add	a5,a5,s2
    8000261a:	1907b503          	ld	a0,400(a5)
    8000261e:	00001097          	auipc	ra,0x1
    80002622:	762080e7          	jalr	1890(ra) # 80003d80 <fileclose>
    vma->valid = 0;
    80002626:	009a07b3          	add	a5,s4,s1
    8000262a:	078e                	slli	a5,a5,0x3
    8000262c:	993e                	add	s2,s2,a5
    8000262e:	16092823          	sw	zero,368(s2)
    80002632:	a011                	j	80002636 <sys_munmap+0x140>
    return -1;
    80002634:	59fd                	li	s3,-1
    80002636:	854e                	mv	a0,s3
    80002638:	70e2                	ld	ra,56(sp)
    8000263a:	7442                	ld	s0,48(sp)
    8000263c:	74a2                	ld	s1,40(sp)
    8000263e:	7902                	ld	s2,32(sp)
    80002640:	69e2                	ld	s3,24(sp)
    80002642:	6a42                	ld	s4,16(sp)
    80002644:	6121                	addi	sp,sp,64
    80002646:	8082                	ret
    return -1;
    80002648:	59fd                	li	s3,-1
    8000264a:	b7f5                	j	80002636 <sys_munmap+0x140>

000000008000264c <binit>:
  struct buf head;
} bcache;

void
binit(void)
{
    8000264c:	7179                	addi	sp,sp,-48
    8000264e:	f406                	sd	ra,40(sp)
    80002650:	f022                	sd	s0,32(sp)
    80002652:	ec26                	sd	s1,24(sp)
    80002654:	e84a                	sd	s2,16(sp)
    80002656:	e44e                	sd	s3,8(sp)
    80002658:	e052                	sd	s4,0(sp)
    8000265a:	1800                	addi	s0,sp,48
  struct buf *b;

  initlock(&bcache.lock, "bcache");
    8000265c:	00006597          	auipc	a1,0x6
    80002660:	e3c58593          	addi	a1,a1,-452 # 80008498 <syscalls+0xe8>
    80002664:	00017517          	auipc	a0,0x17
    80002668:	a3450513          	addi	a0,a0,-1484 # 80019098 <bcache>
    8000266c:	00004097          	auipc	ra,0x4
    80002670:	d8c080e7          	jalr	-628(ra) # 800063f8 <initlock>

  // Create linked list of buffers
  bcache.head.prev = &bcache.head;
    80002674:	0001f797          	auipc	a5,0x1f
    80002678:	a2478793          	addi	a5,a5,-1500 # 80021098 <bcache+0x8000>
    8000267c:	0001f717          	auipc	a4,0x1f
    80002680:	c8470713          	addi	a4,a4,-892 # 80021300 <bcache+0x8268>
    80002684:	2ae7b823          	sd	a4,688(a5)
  bcache.head.next = &bcache.head;
    80002688:	2ae7bc23          	sd	a4,696(a5)
  for(b = bcache.buf; b < bcache.buf+NBUF; b++){
    8000268c:	00017497          	auipc	s1,0x17
    80002690:	a2448493          	addi	s1,s1,-1500 # 800190b0 <bcache+0x18>
    b->next = bcache.head.next;
    80002694:	893e                	mv	s2,a5
    b->prev = &bcache.head;
    80002696:	89ba                	mv	s3,a4
    initsleeplock(&b->lock, "buffer");
    80002698:	00006a17          	auipc	s4,0x6
    8000269c:	e08a0a13          	addi	s4,s4,-504 # 800084a0 <syscalls+0xf0>
    b->next = bcache.head.next;
    800026a0:	2b893783          	ld	a5,696(s2)
    800026a4:	e8bc                	sd	a5,80(s1)
    b->prev = &bcache.head;
    800026a6:	0534b423          	sd	s3,72(s1)
    initsleeplock(&b->lock, "buffer");
    800026aa:	85d2                	mv	a1,s4
    800026ac:	01048513          	addi	a0,s1,16
    800026b0:	00001097          	auipc	ra,0x1
    800026b4:	4c2080e7          	jalr	1218(ra) # 80003b72 <initsleeplock>
    bcache.head.next->prev = b;
    800026b8:	2b893783          	ld	a5,696(s2)
    800026bc:	e7a4                	sd	s1,72(a5)
    bcache.head.next = b;
    800026be:	2a993c23          	sd	s1,696(s2)
  for(b = bcache.buf; b < bcache.buf+NBUF; b++){
    800026c2:	45848493          	addi	s1,s1,1112
    800026c6:	fd349de3          	bne	s1,s3,800026a0 <binit+0x54>
  }
}
    800026ca:	70a2                	ld	ra,40(sp)
    800026cc:	7402                	ld	s0,32(sp)
    800026ce:	64e2                	ld	s1,24(sp)
    800026d0:	6942                	ld	s2,16(sp)
    800026d2:	69a2                	ld	s3,8(sp)
    800026d4:	6a02                	ld	s4,0(sp)
    800026d6:	6145                	addi	sp,sp,48
    800026d8:	8082                	ret

00000000800026da <bread>:
}

// Return a locked buf with the contents of the indicated block.
struct buf*
bread(uint dev, uint blockno)
{
    800026da:	7179                	addi	sp,sp,-48
    800026dc:	f406                	sd	ra,40(sp)
    800026de:	f022                	sd	s0,32(sp)
    800026e0:	ec26                	sd	s1,24(sp)
    800026e2:	e84a                	sd	s2,16(sp)
    800026e4:	e44e                	sd	s3,8(sp)
    800026e6:	1800                	addi	s0,sp,48
    800026e8:	892a                	mv	s2,a0
    800026ea:	89ae                	mv	s3,a1
  acquire(&bcache.lock);
    800026ec:	00017517          	auipc	a0,0x17
    800026f0:	9ac50513          	addi	a0,a0,-1620 # 80019098 <bcache>
    800026f4:	00004097          	auipc	ra,0x4
    800026f8:	d94080e7          	jalr	-620(ra) # 80006488 <acquire>
  for(b = bcache.head.next; b != &bcache.head; b = b->next){
    800026fc:	0001f497          	auipc	s1,0x1f
    80002700:	c544b483          	ld	s1,-940(s1) # 80021350 <bcache+0x82b8>
    80002704:	0001f797          	auipc	a5,0x1f
    80002708:	bfc78793          	addi	a5,a5,-1028 # 80021300 <bcache+0x8268>
    8000270c:	02f48f63          	beq	s1,a5,8000274a <bread+0x70>
    80002710:	873e                	mv	a4,a5
    80002712:	a021                	j	8000271a <bread+0x40>
    80002714:	68a4                	ld	s1,80(s1)
    80002716:	02e48a63          	beq	s1,a4,8000274a <bread+0x70>
    if(b->dev == dev && b->blockno == blockno){
    8000271a:	449c                	lw	a5,8(s1)
    8000271c:	ff279ce3          	bne	a5,s2,80002714 <bread+0x3a>
    80002720:	44dc                	lw	a5,12(s1)
    80002722:	ff3799e3          	bne	a5,s3,80002714 <bread+0x3a>
      b->refcnt++;
    80002726:	40bc                	lw	a5,64(s1)
    80002728:	2785                	addiw	a5,a5,1
    8000272a:	c0bc                	sw	a5,64(s1)
      release(&bcache.lock);
    8000272c:	00017517          	auipc	a0,0x17
    80002730:	96c50513          	addi	a0,a0,-1684 # 80019098 <bcache>
    80002734:	00004097          	auipc	ra,0x4
    80002738:	e08080e7          	jalr	-504(ra) # 8000653c <release>
      acquiresleep(&b->lock);
    8000273c:	01048513          	addi	a0,s1,16
    80002740:	00001097          	auipc	ra,0x1
    80002744:	46c080e7          	jalr	1132(ra) # 80003bac <acquiresleep>
      return b;
    80002748:	a8b9                	j	800027a6 <bread+0xcc>
  for(b = bcache.head.prev; b != &bcache.head; b = b->prev){
    8000274a:	0001f497          	auipc	s1,0x1f
    8000274e:	bfe4b483          	ld	s1,-1026(s1) # 80021348 <bcache+0x82b0>
    80002752:	0001f797          	auipc	a5,0x1f
    80002756:	bae78793          	addi	a5,a5,-1106 # 80021300 <bcache+0x8268>
    8000275a:	00f48863          	beq	s1,a5,8000276a <bread+0x90>
    8000275e:	873e                	mv	a4,a5
    if(b->refcnt == 0) {
    80002760:	40bc                	lw	a5,64(s1)
    80002762:	cf81                	beqz	a5,8000277a <bread+0xa0>
  for(b = bcache.head.prev; b != &bcache.head; b = b->prev){
    80002764:	64a4                	ld	s1,72(s1)
    80002766:	fee49de3          	bne	s1,a4,80002760 <bread+0x86>
  panic("bget: no buffers");
    8000276a:	00006517          	auipc	a0,0x6
    8000276e:	d3e50513          	addi	a0,a0,-706 # 800084a8 <syscalls+0xf8>
    80002772:	00003097          	auipc	ra,0x3
    80002776:	7de080e7          	jalr	2014(ra) # 80005f50 <panic>
      b->dev = dev;
    8000277a:	0124a423          	sw	s2,8(s1)
      b->blockno = blockno;
    8000277e:	0134a623          	sw	s3,12(s1)
      b->valid = 0;
    80002782:	0004a023          	sw	zero,0(s1)
      b->refcnt = 1;
    80002786:	4785                	li	a5,1
    80002788:	c0bc                	sw	a5,64(s1)
      release(&bcache.lock);
    8000278a:	00017517          	auipc	a0,0x17
    8000278e:	90e50513          	addi	a0,a0,-1778 # 80019098 <bcache>
    80002792:	00004097          	auipc	ra,0x4
    80002796:	daa080e7          	jalr	-598(ra) # 8000653c <release>
      acquiresleep(&b->lock);
    8000279a:	01048513          	addi	a0,s1,16
    8000279e:	00001097          	auipc	ra,0x1
    800027a2:	40e080e7          	jalr	1038(ra) # 80003bac <acquiresleep>
  struct buf *b;

  b = bget(dev, blockno);
  if(!b->valid) {
    800027a6:	409c                	lw	a5,0(s1)
    800027a8:	cb89                	beqz	a5,800027ba <bread+0xe0>
    virtio_disk_rw(b, 0);
    b->valid = 1;
  }
  return b;
}
    800027aa:	8526                	mv	a0,s1
    800027ac:	70a2                	ld	ra,40(sp)
    800027ae:	7402                	ld	s0,32(sp)
    800027b0:	64e2                	ld	s1,24(sp)
    800027b2:	6942                	ld	s2,16(sp)
    800027b4:	69a2                	ld	s3,8(sp)
    800027b6:	6145                	addi	sp,sp,48
    800027b8:	8082                	ret
    virtio_disk_rw(b, 0);
    800027ba:	4581                	li	a1,0
    800027bc:	8526                	mv	a0,s1
    800027be:	00003097          	auipc	ra,0x3
    800027c2:	f24080e7          	jalr	-220(ra) # 800056e2 <virtio_disk_rw>
    b->valid = 1;
    800027c6:	4785                	li	a5,1
    800027c8:	c09c                	sw	a5,0(s1)
  return b;
    800027ca:	b7c5                	j	800027aa <bread+0xd0>

00000000800027cc <bwrite>:

// Write b's contents to disk.  Must be locked.
void
bwrite(struct buf *b)
{
    800027cc:	1101                	addi	sp,sp,-32
    800027ce:	ec06                	sd	ra,24(sp)
    800027d0:	e822                	sd	s0,16(sp)
    800027d2:	e426                	sd	s1,8(sp)
    800027d4:	1000                	addi	s0,sp,32
    800027d6:	84aa                	mv	s1,a0
  if(!holdingsleep(&b->lock))
    800027d8:	0541                	addi	a0,a0,16
    800027da:	00001097          	auipc	ra,0x1
    800027de:	46c080e7          	jalr	1132(ra) # 80003c46 <holdingsleep>
    800027e2:	cd01                	beqz	a0,800027fa <bwrite+0x2e>
    panic("bwrite");
  virtio_disk_rw(b, 1);
    800027e4:	4585                	li	a1,1
    800027e6:	8526                	mv	a0,s1
    800027e8:	00003097          	auipc	ra,0x3
    800027ec:	efa080e7          	jalr	-262(ra) # 800056e2 <virtio_disk_rw>
}
    800027f0:	60e2                	ld	ra,24(sp)
    800027f2:	6442                	ld	s0,16(sp)
    800027f4:	64a2                	ld	s1,8(sp)
    800027f6:	6105                	addi	sp,sp,32
    800027f8:	8082                	ret
    panic("bwrite");
    800027fa:	00006517          	auipc	a0,0x6
    800027fe:	cc650513          	addi	a0,a0,-826 # 800084c0 <syscalls+0x110>
    80002802:	00003097          	auipc	ra,0x3
    80002806:	74e080e7          	jalr	1870(ra) # 80005f50 <panic>

000000008000280a <brelse>:

// Release a locked buffer.
// Move to the head of the most-recently-used list.
void
brelse(struct buf *b)
{
    8000280a:	1101                	addi	sp,sp,-32
    8000280c:	ec06                	sd	ra,24(sp)
    8000280e:	e822                	sd	s0,16(sp)
    80002810:	e426                	sd	s1,8(sp)
    80002812:	e04a                	sd	s2,0(sp)
    80002814:	1000                	addi	s0,sp,32
    80002816:	84aa                	mv	s1,a0
  if(!holdingsleep(&b->lock))
    80002818:	01050913          	addi	s2,a0,16
    8000281c:	854a                	mv	a0,s2
    8000281e:	00001097          	auipc	ra,0x1
    80002822:	428080e7          	jalr	1064(ra) # 80003c46 <holdingsleep>
    80002826:	c92d                	beqz	a0,80002898 <brelse+0x8e>
    panic("brelse");

  releasesleep(&b->lock);
    80002828:	854a                	mv	a0,s2
    8000282a:	00001097          	auipc	ra,0x1
    8000282e:	3d8080e7          	jalr	984(ra) # 80003c02 <releasesleep>

  acquire(&bcache.lock);
    80002832:	00017517          	auipc	a0,0x17
    80002836:	86650513          	addi	a0,a0,-1946 # 80019098 <bcache>
    8000283a:	00004097          	auipc	ra,0x4
    8000283e:	c4e080e7          	jalr	-946(ra) # 80006488 <acquire>
  b->refcnt--;
    80002842:	40bc                	lw	a5,64(s1)
    80002844:	37fd                	addiw	a5,a5,-1
    80002846:	0007871b          	sext.w	a4,a5
    8000284a:	c0bc                	sw	a5,64(s1)
  if (b->refcnt == 0) {
    8000284c:	eb05                	bnez	a4,8000287c <brelse+0x72>
    // no one is waiting for it.
    b->next->prev = b->prev;
    8000284e:	68bc                	ld	a5,80(s1)
    80002850:	64b8                	ld	a4,72(s1)
    80002852:	e7b8                	sd	a4,72(a5)
    b->prev->next = b->next;
    80002854:	64bc                	ld	a5,72(s1)
    80002856:	68b8                	ld	a4,80(s1)
    80002858:	ebb8                	sd	a4,80(a5)
    b->next = bcache.head.next;
    8000285a:	0001f797          	auipc	a5,0x1f
    8000285e:	83e78793          	addi	a5,a5,-1986 # 80021098 <bcache+0x8000>
    80002862:	2b87b703          	ld	a4,696(a5)
    80002866:	e8b8                	sd	a4,80(s1)
    b->prev = &bcache.head;
    80002868:	0001f717          	auipc	a4,0x1f
    8000286c:	a9870713          	addi	a4,a4,-1384 # 80021300 <bcache+0x8268>
    80002870:	e4b8                	sd	a4,72(s1)
    bcache.head.next->prev = b;
    80002872:	2b87b703          	ld	a4,696(a5)
    80002876:	e724                	sd	s1,72(a4)
    bcache.head.next = b;
    80002878:	2a97bc23          	sd	s1,696(a5)
  }
  
  release(&bcache.lock);
    8000287c:	00017517          	auipc	a0,0x17
    80002880:	81c50513          	addi	a0,a0,-2020 # 80019098 <bcache>
    80002884:	00004097          	auipc	ra,0x4
    80002888:	cb8080e7          	jalr	-840(ra) # 8000653c <release>
}
    8000288c:	60e2                	ld	ra,24(sp)
    8000288e:	6442                	ld	s0,16(sp)
    80002890:	64a2                	ld	s1,8(sp)
    80002892:	6902                	ld	s2,0(sp)
    80002894:	6105                	addi	sp,sp,32
    80002896:	8082                	ret
    panic("brelse");
    80002898:	00006517          	auipc	a0,0x6
    8000289c:	c3050513          	addi	a0,a0,-976 # 800084c8 <syscalls+0x118>
    800028a0:	00003097          	auipc	ra,0x3
    800028a4:	6b0080e7          	jalr	1712(ra) # 80005f50 <panic>

00000000800028a8 <bpin>:

void
bpin(struct buf *b) {
    800028a8:	1101                	addi	sp,sp,-32
    800028aa:	ec06                	sd	ra,24(sp)
    800028ac:	e822                	sd	s0,16(sp)
    800028ae:	e426                	sd	s1,8(sp)
    800028b0:	1000                	addi	s0,sp,32
    800028b2:	84aa                	mv	s1,a0
  acquire(&bcache.lock);
    800028b4:	00016517          	auipc	a0,0x16
    800028b8:	7e450513          	addi	a0,a0,2020 # 80019098 <bcache>
    800028bc:	00004097          	auipc	ra,0x4
    800028c0:	bcc080e7          	jalr	-1076(ra) # 80006488 <acquire>
  b->refcnt++;
    800028c4:	40bc                	lw	a5,64(s1)
    800028c6:	2785                	addiw	a5,a5,1
    800028c8:	c0bc                	sw	a5,64(s1)
  release(&bcache.lock);
    800028ca:	00016517          	auipc	a0,0x16
    800028ce:	7ce50513          	addi	a0,a0,1998 # 80019098 <bcache>
    800028d2:	00004097          	auipc	ra,0x4
    800028d6:	c6a080e7          	jalr	-918(ra) # 8000653c <release>
}
    800028da:	60e2                	ld	ra,24(sp)
    800028dc:	6442                	ld	s0,16(sp)
    800028de:	64a2                	ld	s1,8(sp)
    800028e0:	6105                	addi	sp,sp,32
    800028e2:	8082                	ret

00000000800028e4 <bunpin>:

void
bunpin(struct buf *b) {
    800028e4:	1101                	addi	sp,sp,-32
    800028e6:	ec06                	sd	ra,24(sp)
    800028e8:	e822                	sd	s0,16(sp)
    800028ea:	e426                	sd	s1,8(sp)
    800028ec:	1000                	addi	s0,sp,32
    800028ee:	84aa                	mv	s1,a0
  acquire(&bcache.lock);
    800028f0:	00016517          	auipc	a0,0x16
    800028f4:	7a850513          	addi	a0,a0,1960 # 80019098 <bcache>
    800028f8:	00004097          	auipc	ra,0x4
    800028fc:	b90080e7          	jalr	-1136(ra) # 80006488 <acquire>
  b->refcnt--;
    80002900:	40bc                	lw	a5,64(s1)
    80002902:	37fd                	addiw	a5,a5,-1
    80002904:	c0bc                	sw	a5,64(s1)
  release(&bcache.lock);
    80002906:	00016517          	auipc	a0,0x16
    8000290a:	79250513          	addi	a0,a0,1938 # 80019098 <bcache>
    8000290e:	00004097          	auipc	ra,0x4
    80002912:	c2e080e7          	jalr	-978(ra) # 8000653c <release>
}
    80002916:	60e2                	ld	ra,24(sp)
    80002918:	6442                	ld	s0,16(sp)
    8000291a:	64a2                	ld	s1,8(sp)
    8000291c:	6105                	addi	sp,sp,32
    8000291e:	8082                	ret

0000000080002920 <bfree>:
}

// Free a disk block.
static void
bfree(int dev, uint b)
{
    80002920:	1101                	addi	sp,sp,-32
    80002922:	ec06                	sd	ra,24(sp)
    80002924:	e822                	sd	s0,16(sp)
    80002926:	e426                	sd	s1,8(sp)
    80002928:	e04a                	sd	s2,0(sp)
    8000292a:	1000                	addi	s0,sp,32
    8000292c:	84ae                	mv	s1,a1
  struct buf *bp;
  int bi, m;

  bp = bread(dev, BBLOCK(b, sb));
    8000292e:	00d5d59b          	srliw	a1,a1,0xd
    80002932:	0001f797          	auipc	a5,0x1f
    80002936:	e427a783          	lw	a5,-446(a5) # 80021774 <sb+0x1c>
    8000293a:	9dbd                	addw	a1,a1,a5
    8000293c:	00000097          	auipc	ra,0x0
    80002940:	d9e080e7          	jalr	-610(ra) # 800026da <bread>
  bi = b % BPB;
  m = 1 << (bi % 8);
    80002944:	0074f713          	andi	a4,s1,7
    80002948:	4785                	li	a5,1
    8000294a:	00e797bb          	sllw	a5,a5,a4
  if((bp->data[bi/8] & m) == 0)
    8000294e:	14ce                	slli	s1,s1,0x33
    80002950:	90d9                	srli	s1,s1,0x36
    80002952:	00950733          	add	a4,a0,s1
    80002956:	05874703          	lbu	a4,88(a4)
    8000295a:	00e7f6b3          	and	a3,a5,a4
    8000295e:	c69d                	beqz	a3,8000298c <bfree+0x6c>
    80002960:	892a                	mv	s2,a0
    panic("freeing free block");
  bp->data[bi/8] &= ~m;
    80002962:	94aa                	add	s1,s1,a0
    80002964:	fff7c793          	not	a5,a5
    80002968:	8f7d                	and	a4,a4,a5
    8000296a:	04e48c23          	sb	a4,88(s1)
  log_write(bp);
    8000296e:	00001097          	auipc	ra,0x1
    80002972:	120080e7          	jalr	288(ra) # 80003a8e <log_write>
  brelse(bp);
    80002976:	854a                	mv	a0,s2
    80002978:	00000097          	auipc	ra,0x0
    8000297c:	e92080e7          	jalr	-366(ra) # 8000280a <brelse>
}
    80002980:	60e2                	ld	ra,24(sp)
    80002982:	6442                	ld	s0,16(sp)
    80002984:	64a2                	ld	s1,8(sp)
    80002986:	6902                	ld	s2,0(sp)
    80002988:	6105                	addi	sp,sp,32
    8000298a:	8082                	ret
    panic("freeing free block");
    8000298c:	00006517          	auipc	a0,0x6
    80002990:	b4450513          	addi	a0,a0,-1212 # 800084d0 <syscalls+0x120>
    80002994:	00003097          	auipc	ra,0x3
    80002998:	5bc080e7          	jalr	1468(ra) # 80005f50 <panic>

000000008000299c <balloc>:
{
    8000299c:	711d                	addi	sp,sp,-96
    8000299e:	ec86                	sd	ra,88(sp)
    800029a0:	e8a2                	sd	s0,80(sp)
    800029a2:	e4a6                	sd	s1,72(sp)
    800029a4:	e0ca                	sd	s2,64(sp)
    800029a6:	fc4e                	sd	s3,56(sp)
    800029a8:	f852                	sd	s4,48(sp)
    800029aa:	f456                	sd	s5,40(sp)
    800029ac:	f05a                	sd	s6,32(sp)
    800029ae:	ec5e                	sd	s7,24(sp)
    800029b0:	e862                	sd	s8,16(sp)
    800029b2:	e466                	sd	s9,8(sp)
    800029b4:	1080                	addi	s0,sp,96
  for(b = 0; b < sb.size; b += BPB){
    800029b6:	0001f797          	auipc	a5,0x1f
    800029ba:	da67a783          	lw	a5,-602(a5) # 8002175c <sb+0x4>
    800029be:	cbc1                	beqz	a5,80002a4e <balloc+0xb2>
    800029c0:	8baa                	mv	s7,a0
    800029c2:	4a81                	li	s5,0
    bp = bread(dev, BBLOCK(b, sb));
    800029c4:	0001fb17          	auipc	s6,0x1f
    800029c8:	d94b0b13          	addi	s6,s6,-620 # 80021758 <sb>
    for(bi = 0; bi < BPB && b + bi < sb.size; bi++){
    800029cc:	4c01                	li	s8,0
      m = 1 << (bi % 8);
    800029ce:	4985                	li	s3,1
    for(bi = 0; bi < BPB && b + bi < sb.size; bi++){
    800029d0:	6a09                	lui	s4,0x2
  for(b = 0; b < sb.size; b += BPB){
    800029d2:	6c89                	lui	s9,0x2
    800029d4:	a831                	j	800029f0 <balloc+0x54>
    brelse(bp);
    800029d6:	854a                	mv	a0,s2
    800029d8:	00000097          	auipc	ra,0x0
    800029dc:	e32080e7          	jalr	-462(ra) # 8000280a <brelse>
  for(b = 0; b < sb.size; b += BPB){
    800029e0:	015c87bb          	addw	a5,s9,s5
    800029e4:	00078a9b          	sext.w	s5,a5
    800029e8:	004b2703          	lw	a4,4(s6)
    800029ec:	06eaf163          	bgeu	s5,a4,80002a4e <balloc+0xb2>
    bp = bread(dev, BBLOCK(b, sb));
    800029f0:	41fad79b          	sraiw	a5,s5,0x1f
    800029f4:	0137d79b          	srliw	a5,a5,0x13
    800029f8:	015787bb          	addw	a5,a5,s5
    800029fc:	40d7d79b          	sraiw	a5,a5,0xd
    80002a00:	01cb2583          	lw	a1,28(s6)
    80002a04:	9dbd                	addw	a1,a1,a5
    80002a06:	855e                	mv	a0,s7
    80002a08:	00000097          	auipc	ra,0x0
    80002a0c:	cd2080e7          	jalr	-814(ra) # 800026da <bread>
    80002a10:	892a                	mv	s2,a0
    for(bi = 0; bi < BPB && b + bi < sb.size; bi++){
    80002a12:	004b2503          	lw	a0,4(s6)
    80002a16:	000a849b          	sext.w	s1,s5
    80002a1a:	8762                	mv	a4,s8
    80002a1c:	faa4fde3          	bgeu	s1,a0,800029d6 <balloc+0x3a>
      m = 1 << (bi % 8);
    80002a20:	00777693          	andi	a3,a4,7
    80002a24:	00d996bb          	sllw	a3,s3,a3
      if((bp->data[bi/8] & m) == 0){  // Is block free?
    80002a28:	41f7579b          	sraiw	a5,a4,0x1f
    80002a2c:	01d7d79b          	srliw	a5,a5,0x1d
    80002a30:	9fb9                	addw	a5,a5,a4
    80002a32:	4037d79b          	sraiw	a5,a5,0x3
    80002a36:	00f90633          	add	a2,s2,a5
    80002a3a:	05864603          	lbu	a2,88(a2) # 1058 <_entry-0x7fffefa8>
    80002a3e:	00c6f5b3          	and	a1,a3,a2
    80002a42:	cd91                	beqz	a1,80002a5e <balloc+0xc2>
    for(bi = 0; bi < BPB && b + bi < sb.size; bi++){
    80002a44:	2705                	addiw	a4,a4,1
    80002a46:	2485                	addiw	s1,s1,1
    80002a48:	fd471ae3          	bne	a4,s4,80002a1c <balloc+0x80>
    80002a4c:	b769                	j	800029d6 <balloc+0x3a>
  panic("balloc: out of blocks");
    80002a4e:	00006517          	auipc	a0,0x6
    80002a52:	a9a50513          	addi	a0,a0,-1382 # 800084e8 <syscalls+0x138>
    80002a56:	00003097          	auipc	ra,0x3
    80002a5a:	4fa080e7          	jalr	1274(ra) # 80005f50 <panic>
        bp->data[bi/8] |= m;  // Mark block in use.
    80002a5e:	97ca                	add	a5,a5,s2
    80002a60:	8e55                	or	a2,a2,a3
    80002a62:	04c78c23          	sb	a2,88(a5)
        log_write(bp);
    80002a66:	854a                	mv	a0,s2
    80002a68:	00001097          	auipc	ra,0x1
    80002a6c:	026080e7          	jalr	38(ra) # 80003a8e <log_write>
        brelse(bp);
    80002a70:	854a                	mv	a0,s2
    80002a72:	00000097          	auipc	ra,0x0
    80002a76:	d98080e7          	jalr	-616(ra) # 8000280a <brelse>
  bp = bread(dev, bno);
    80002a7a:	85a6                	mv	a1,s1
    80002a7c:	855e                	mv	a0,s7
    80002a7e:	00000097          	auipc	ra,0x0
    80002a82:	c5c080e7          	jalr	-932(ra) # 800026da <bread>
    80002a86:	892a                	mv	s2,a0
  memset(bp->data, 0, BSIZE);
    80002a88:	40000613          	li	a2,1024
    80002a8c:	4581                	li	a1,0
    80002a8e:	05850513          	addi	a0,a0,88
    80002a92:	ffffd097          	auipc	ra,0xffffd
    80002a96:	6e8080e7          	jalr	1768(ra) # 8000017a <memset>
  log_write(bp);
    80002a9a:	854a                	mv	a0,s2
    80002a9c:	00001097          	auipc	ra,0x1
    80002aa0:	ff2080e7          	jalr	-14(ra) # 80003a8e <log_write>
  brelse(bp);
    80002aa4:	854a                	mv	a0,s2
    80002aa6:	00000097          	auipc	ra,0x0
    80002aaa:	d64080e7          	jalr	-668(ra) # 8000280a <brelse>
}
    80002aae:	8526                	mv	a0,s1
    80002ab0:	60e6                	ld	ra,88(sp)
    80002ab2:	6446                	ld	s0,80(sp)
    80002ab4:	64a6                	ld	s1,72(sp)
    80002ab6:	6906                	ld	s2,64(sp)
    80002ab8:	79e2                	ld	s3,56(sp)
    80002aba:	7a42                	ld	s4,48(sp)
    80002abc:	7aa2                	ld	s5,40(sp)
    80002abe:	7b02                	ld	s6,32(sp)
    80002ac0:	6be2                	ld	s7,24(sp)
    80002ac2:	6c42                	ld	s8,16(sp)
    80002ac4:	6ca2                	ld	s9,8(sp)
    80002ac6:	6125                	addi	sp,sp,96
    80002ac8:	8082                	ret

0000000080002aca <bmap>:

// Return the disk block address of the nth block in inode ip.
// If there is no such block, bmap allocates one.
static uint
bmap(struct inode *ip, uint bn)
{
    80002aca:	7179                	addi	sp,sp,-48
    80002acc:	f406                	sd	ra,40(sp)
    80002ace:	f022                	sd	s0,32(sp)
    80002ad0:	ec26                	sd	s1,24(sp)
    80002ad2:	e84a                	sd	s2,16(sp)
    80002ad4:	e44e                	sd	s3,8(sp)
    80002ad6:	e052                	sd	s4,0(sp)
    80002ad8:	1800                	addi	s0,sp,48
    80002ada:	892a                	mv	s2,a0
  uint addr, *a;
  struct buf *bp;

  if(bn < NDIRECT){
    80002adc:	47ad                	li	a5,11
    80002ade:	04b7fe63          	bgeu	a5,a1,80002b3a <bmap+0x70>
    if((addr = ip->addrs[bn]) == 0)
      ip->addrs[bn] = addr = balloc(ip->dev);
    return addr;
  }
  bn -= NDIRECT;
    80002ae2:	ff45849b          	addiw	s1,a1,-12
    80002ae6:	0004871b          	sext.w	a4,s1

  if(bn < NINDIRECT){
    80002aea:	0ff00793          	li	a5,255
    80002aee:	0ae7e463          	bltu	a5,a4,80002b96 <bmap+0xcc>
    // Load indirect block, allocating if necessary.
    if((addr = ip->addrs[NDIRECT]) == 0)
    80002af2:	08052583          	lw	a1,128(a0)
    80002af6:	c5b5                	beqz	a1,80002b62 <bmap+0x98>
      ip->addrs[NDIRECT] = addr = balloc(ip->dev);
    bp = bread(ip->dev, addr);
    80002af8:	00092503          	lw	a0,0(s2)
    80002afc:	00000097          	auipc	ra,0x0
    80002b00:	bde080e7          	jalr	-1058(ra) # 800026da <bread>
    80002b04:	8a2a                	mv	s4,a0
    a = (uint*)bp->data;
    80002b06:	05850793          	addi	a5,a0,88
    if((addr = a[bn]) == 0){
    80002b0a:	02049713          	slli	a4,s1,0x20
    80002b0e:	01e75593          	srli	a1,a4,0x1e
    80002b12:	00b784b3          	add	s1,a5,a1
    80002b16:	0004a983          	lw	s3,0(s1)
    80002b1a:	04098e63          	beqz	s3,80002b76 <bmap+0xac>
      a[bn] = addr = balloc(ip->dev);
      log_write(bp);
    }
    brelse(bp);
    80002b1e:	8552                	mv	a0,s4
    80002b20:	00000097          	auipc	ra,0x0
    80002b24:	cea080e7          	jalr	-790(ra) # 8000280a <brelse>
    return addr;
  }

  panic("bmap: out of range");
}
    80002b28:	854e                	mv	a0,s3
    80002b2a:	70a2                	ld	ra,40(sp)
    80002b2c:	7402                	ld	s0,32(sp)
    80002b2e:	64e2                	ld	s1,24(sp)
    80002b30:	6942                	ld	s2,16(sp)
    80002b32:	69a2                	ld	s3,8(sp)
    80002b34:	6a02                	ld	s4,0(sp)
    80002b36:	6145                	addi	sp,sp,48
    80002b38:	8082                	ret
    if((addr = ip->addrs[bn]) == 0)
    80002b3a:	02059793          	slli	a5,a1,0x20
    80002b3e:	01e7d593          	srli	a1,a5,0x1e
    80002b42:	00b504b3          	add	s1,a0,a1
    80002b46:	0504a983          	lw	s3,80(s1)
    80002b4a:	fc099fe3          	bnez	s3,80002b28 <bmap+0x5e>
      ip->addrs[bn] = addr = balloc(ip->dev);
    80002b4e:	4108                	lw	a0,0(a0)
    80002b50:	00000097          	auipc	ra,0x0
    80002b54:	e4c080e7          	jalr	-436(ra) # 8000299c <balloc>
    80002b58:	0005099b          	sext.w	s3,a0
    80002b5c:	0534a823          	sw	s3,80(s1)
    80002b60:	b7e1                	j	80002b28 <bmap+0x5e>
      ip->addrs[NDIRECT] = addr = balloc(ip->dev);
    80002b62:	4108                	lw	a0,0(a0)
    80002b64:	00000097          	auipc	ra,0x0
    80002b68:	e38080e7          	jalr	-456(ra) # 8000299c <balloc>
    80002b6c:	0005059b          	sext.w	a1,a0
    80002b70:	08b92023          	sw	a1,128(s2)
    80002b74:	b751                	j	80002af8 <bmap+0x2e>
      a[bn] = addr = balloc(ip->dev);
    80002b76:	00092503          	lw	a0,0(s2)
    80002b7a:	00000097          	auipc	ra,0x0
    80002b7e:	e22080e7          	jalr	-478(ra) # 8000299c <balloc>
    80002b82:	0005099b          	sext.w	s3,a0
    80002b86:	0134a023          	sw	s3,0(s1)
      log_write(bp);
    80002b8a:	8552                	mv	a0,s4
    80002b8c:	00001097          	auipc	ra,0x1
    80002b90:	f02080e7          	jalr	-254(ra) # 80003a8e <log_write>
    80002b94:	b769                	j	80002b1e <bmap+0x54>
  panic("bmap: out of range");
    80002b96:	00006517          	auipc	a0,0x6
    80002b9a:	96a50513          	addi	a0,a0,-1686 # 80008500 <syscalls+0x150>
    80002b9e:	00003097          	auipc	ra,0x3
    80002ba2:	3b2080e7          	jalr	946(ra) # 80005f50 <panic>

0000000080002ba6 <iget>:
{
    80002ba6:	7179                	addi	sp,sp,-48
    80002ba8:	f406                	sd	ra,40(sp)
    80002baa:	f022                	sd	s0,32(sp)
    80002bac:	ec26                	sd	s1,24(sp)
    80002bae:	e84a                	sd	s2,16(sp)
    80002bb0:	e44e                	sd	s3,8(sp)
    80002bb2:	e052                	sd	s4,0(sp)
    80002bb4:	1800                	addi	s0,sp,48
    80002bb6:	89aa                	mv	s3,a0
    80002bb8:	8a2e                	mv	s4,a1
  acquire(&itable.lock);
    80002bba:	0001f517          	auipc	a0,0x1f
    80002bbe:	bbe50513          	addi	a0,a0,-1090 # 80021778 <itable>
    80002bc2:	00004097          	auipc	ra,0x4
    80002bc6:	8c6080e7          	jalr	-1850(ra) # 80006488 <acquire>
  empty = 0;
    80002bca:	4901                	li	s2,0
  for(ip = &itable.inode[0]; ip < &itable.inode[NINODE]; ip++){
    80002bcc:	0001f497          	auipc	s1,0x1f
    80002bd0:	bc448493          	addi	s1,s1,-1084 # 80021790 <itable+0x18>
    80002bd4:	00020697          	auipc	a3,0x20
    80002bd8:	64c68693          	addi	a3,a3,1612 # 80023220 <log>
    80002bdc:	a039                	j	80002bea <iget+0x44>
    if(empty == 0 && ip->ref == 0)    // Remember empty slot.
    80002bde:	02090b63          	beqz	s2,80002c14 <iget+0x6e>
  for(ip = &itable.inode[0]; ip < &itable.inode[NINODE]; ip++){
    80002be2:	08848493          	addi	s1,s1,136
    80002be6:	02d48a63          	beq	s1,a3,80002c1a <iget+0x74>
    if(ip->ref > 0 && ip->dev == dev && ip->inum == inum){
    80002bea:	449c                	lw	a5,8(s1)
    80002bec:	fef059e3          	blez	a5,80002bde <iget+0x38>
    80002bf0:	4098                	lw	a4,0(s1)
    80002bf2:	ff3716e3          	bne	a4,s3,80002bde <iget+0x38>
    80002bf6:	40d8                	lw	a4,4(s1)
    80002bf8:	ff4713e3          	bne	a4,s4,80002bde <iget+0x38>
      ip->ref++;
    80002bfc:	2785                	addiw	a5,a5,1
    80002bfe:	c49c                	sw	a5,8(s1)
      release(&itable.lock);
    80002c00:	0001f517          	auipc	a0,0x1f
    80002c04:	b7850513          	addi	a0,a0,-1160 # 80021778 <itable>
    80002c08:	00004097          	auipc	ra,0x4
    80002c0c:	934080e7          	jalr	-1740(ra) # 8000653c <release>
      return ip;
    80002c10:	8926                	mv	s2,s1
    80002c12:	a03d                	j	80002c40 <iget+0x9a>
    if(empty == 0 && ip->ref == 0)    // Remember empty slot.
    80002c14:	f7f9                	bnez	a5,80002be2 <iget+0x3c>
    80002c16:	8926                	mv	s2,s1
    80002c18:	b7e9                	j	80002be2 <iget+0x3c>
  if(empty == 0)
